Microsoft (R) Macro Assembler Version 14.40.33812.0	    04/23/26 15:06:36
C:\Users\RhythmicCarnage\Desktop\CyberStorm\src\boot.asm     Page 1 - 1


				.model tiny
 0000				.code
				org 0
				
				include boot_config.inc
			      C ; generated by scripts/build.ps1
 = 0003			      C BOOTSTRAP_SECTORS EQU 3
 = 007B			      C GAME_SECTORS EQU 123
 = 0004			      C STAGE2_LBA EQU 4
			      C 
				
 = 0800				BOOTSTRAP_SEG  equ 0800h
 = 7C00				BOOT_STACK_TOP equ 7C00h
 = 07C0				BOOT_DATA_SEG  equ 07C0h
 = 0003				TEXT_MODE_80X25 equ 0003h
				
 0000				start:
 0000  FA			    cli
 0001  33 C0			    xor ax, ax
 0003  8E D0			    mov ss, ax
 0005  BC 7C00			    mov sp, BOOT_STACK_TOP
 0008  B8 07C0			    mov ax, BOOT_DATA_SEG
 000B  8E D8			    mov ds, ax
 000D  FB			    sti
 000E  FC			    cld
				
 000F  2E: 88 16 0094 R		    mov [boot_drive], dl
 0014  E8 0012			    call verify_edd_support
 0017  72 56			    jc edd_error
 0019  E8 0030			    call load_bootstrap
 001C  72 56			    jc disk_error
				
 001E  2E: 8A 16 0094 R		    mov dl, [boot_drive]
 0023  68 0800			    push BOOTSTRAP_SEG
 0026  6A 00			    push 0000h
 0028  CB			    retf
				
 0029				verify_edd_support:
 0029  B8 07C0			    mov ax, BOOT_DATA_SEG
 002C  8E D8			    mov ds, ax
 002E  B4 41			    mov ah, 41h
 0030  BB 55AA			    mov bx, 55AAh
 0033  2E: 8A 16 0094 R		    mov dl, [boot_drive]
 0038  CD 13			    int 13h
 003A  72 0E			    jc verify_edd_fail
 003C  81 FB AA55		    cmp bx, 0AA55h
 0040  75 08			    jne verify_edd_fail
 0042  F7 C1 0001		    test cx, 1
 0046  74 02			    jz verify_edd_fail
 0048  F8			    clc
 0049  C3			    ret
				
 004A				verify_edd_fail:
 004A  F9			    stc
 004B  C3			    ret
				
 004C				load_bootstrap:
 004C  B8 07C0			    mov ax, BOOT_DATA_SEG
 004F  8E D8			    mov ds, ax
 0051  B8 0800			    mov ax, BOOTSTRAP_SEG
 0054  8E C0			    mov es, ax
 0056  33 DB			    xor bx, bx
 0058  B4 02			    mov ah, 02h
 005A  B0 03			    mov al, BOOTSTRAP_SECTORS
 005C  32 ED			    xor ch, ch
 005E  B1 02			    mov cl, 2
 0060  32 F6			    xor dh, dh
 0062  2E: 8A 16 0094 R		    mov dl, [boot_drive]
 0067  CD 13			    int 13h
 0069  B8 07C0			    mov ax, BOOT_DATA_SEG
 006C  8E D8			    mov ds, ax
 006E  C3			    ret
				
 006F				edd_error:
 006F  BE 0095 R		    mov si, offset edd_error_text
 0072  EB 03			    jmp print_error
				
 0074				disk_error:
 0074  BE 00AD R		    mov si, offset disk_error_text
				
 0077				print_error:
 0077  B8 07C0			    mov ax, BOOT_DATA_SEG
 007A  8E D8			    mov ds, ax
 007C  B8 0003			    mov ax, TEXT_MODE_80X25
 007F  CD 10			    int 10h
				
 0081				print_error_loop:
 0081  AC			    lodsb
 0082  0A C0			    or al, al
 0084  74 0A			    jz halt
 0086  B4 0E			    mov ah, 0Eh
 0088  B7 00			    mov bh, 00h
 008A  B3 0C			    mov bl, 0Ch
 008C  CD 10			    int 10h
 008E  EB F1			    jmp print_error_loop
				
 0090				halt:
 0090  FA			    cli
 0091				hang:
 0091  F4			    hlt
 0092  EB FD			    jmp hang
				
 0094 00			boot_drive    db 0
 0095 43 59 42 45 52 53		edd_error_text db 'CYBERSTORM EDD REQUIRED', 0
       54 4F 52 4D 20 45
       44 44 20 52 45 51
       55 49 52 45 44 00
 00AD 43 59 42 45 52 53		disk_error_text db 'CYBERSTORM BOOTSTRAP ERROR', 0
       54 4F 52 4D 20 42
       4F 4F 54 53 54 52
       41 50 20 45 52 52
       4F 52 00
				
				end start
C:\Users\RhythmicCarnage\Desktop\CyberStorm\src\boot.asm(102) : warning A4023:with /coff switch, leading underscore required for start address : start
Microsoft (R) Macro Assembler Version 14.40.33812.0	    04/23/26 15:06:36
C:\Users\RhythmicCarnage\Desktop\CyberStorm\src\boot.asm     Symbols 2 - 1




Segments and Groups:

                N a m e                 Size     Length   Align   Combine Class

_DATA  . . . . . . . . . . . . .	16 Bit	 0000	  Word	  Public  'DATA'	
_TEXT  . . . . . . . . . . . . .	16 Bit	 00C8	  Word	  Public  'CODE'	


Symbols:

                N a m e                 Type     Value    Attr

@CodeSize  . . . . . . . . . . .	Number	 0000h	 
@DataSize  . . . . . . . . . . .	Number	 0000h	 
@Interface . . . . . . . . . . .	Number	 0000h	 
@Model . . . . . . . . . . . . .	Number	 0001h	 
@code  . . . . . . . . . . . . .	Text   	 DGROUP
@data  . . . . . . . . . . . . .	Text   	 DGROUP
@fardata?  . . . . . . . . . . .	Text   	 FAR_BSS
@fardata . . . . . . . . . . . .	Text   	 FAR_DATA
@stack . . . . . . . . . . . . .	Text   	 DGROUP
BOOTSTRAP_SECTORS  . . . . . . .	Number	 0003h	 
BOOTSTRAP_SEG  . . . . . . . . .	Number	 0800h	 
BOOT_DATA_SEG  . . . . . . . . .	Number	 07C0h	 
BOOT_STACK_TOP . . . . . . . . .	Number	 7C00h	 
GAME_SECTORS . . . . . . . . . .	Number	 007Bh	 
STAGE2_LBA . . . . . . . . . . .	Number	 0004h	 
TEXT_MODE_80X25  . . . . . . . .	Number	 0003h	 
boot_drive . . . . . . . . . . .	Byte	 0094	  _TEXT	
disk_error_text  . . . . . . . .	Byte	 00AD	  _TEXT	
disk_error . . . . . . . . . . .	L Near	 0074	  _TEXT	
edd_error_text . . . . . . . . .	Byte	 0095	  _TEXT	
edd_error  . . . . . . . . . . .	L Near	 006F	  _TEXT	
halt . . . . . . . . . . . . . .	L Near	 0090	  _TEXT	
hang . . . . . . . . . . . . . .	L Near	 0091	  _TEXT	
load_bootstrap . . . . . . . . .	L Near	 004C	  _TEXT	
print_error_loop . . . . . . . .	L Near	 0081	  _TEXT	
print_error  . . . . . . . . . .	L Near	 0077	  _TEXT	
start  . . . . . . . . . . . . .	L Near	 0000	  _TEXT	Public
verify_edd_fail  . . . . . . . .	L Near	 004A	  _TEXT	
verify_edd_support . . . . . . .	L Near	 0029	  _TEXT	

	   1 Warnings
	   0 Errors
