Microsoft (R) Macro Assembler Version 14.40.33812.0	    04/24/26 12:18:38
C:\Users\RhythmicCarnage\Desktop\CyberStorm\src\bootstrap.asm  Page 1 - 1


				.model tiny
				.386p
 0000				.code
				org 0
				
				include boot_config.inc
			      C ; generated by scripts/build.ps1
 = 0003			      C BOOTSTRAP_SECTORS EQU 3
 = 0080			      C GAME_SECTORS EQU 128
 = 0004			      C STAGE2_LBA EQU 4
			      C 
				include generated_bank_layout.inc
			      C ; generated by scripts/build.ps1
			      C ; stage two includes this file to locate banked read-only payloads on disk
			      C 
 = 0084			      C CODE_BANK_LBA EQU 132
 = 0002			      C CODE_BANK_SECTORS EQU 2
 = 02A4			      C CODE_BANK_BYTES EQU 676
 = 0400			      C CODE_BANK_PADDED_BYTES EQU 1024
			      C 
 = 0086			      C TEXTURE_BANK_LBA EQU 134
 = 0080			      C TEXTURE_BANK_SECTORS EQU 128
 = 00010000		      C TEXTURE_BANK_BYTES EQU 65536
 = 00010000		      C TEXTURE_BANK_PADDED_BYTES EQU 65536
			      C 
 = 0106			      C TEXTURE_BANK_B_LBA EQU 262
 = 0080			      C TEXTURE_BANK_B_SECTORS EQU 128
 = 00010000		      C TEXTURE_BANK_B_BYTES EQU 65536
 = 00010000		      C TEXTURE_BANK_B_PADDED_BYTES EQU 65536
			      C 
 = 0186			      C MAP_BANK_LBA EQU 390
 = 000E			      C MAP_BANK_SECTORS EQU 14
 = 1AC5			      C MAP_BANK_BYTES EQU 6853
 = 1C00			      C MAP_BANK_PADDED_BYTES EQU 7168
			      C 
 = 0194			      C PRESENT_BANK_LBA EQU 404
 = 0027			      C PRESENT_BANK_SECTORS EQU 39
 = 4E00			      C PRESENT_BANK_BYTES EQU 19968
 = 4E00			      C PRESENT_BANK_PADDED_BYTES EQU 19968
			      C 
 = 01BB			      C GEOMETRY_BANK_LBA EQU 443
 = 001A			      C GEOMETRY_BANK_SECTORS EQU 26
 = 334A			      C GEOMETRY_BANK_BYTES EQU 13130
 = 3400			      C GEOMETRY_BANK_PADDED_BYTES EQU 13312
			      C 
				
 = 0800				BOOTSTRAP_SEG equ 0800h
 = 8000				BOOTSTRAP_PHYS equ 08000h
 = 1000				STAGE2_SEG    equ 1000h
 = 8800				STACK_SEG     equ 8800h
 = 7FFE				STACK_TOP     equ 7FFEh
 = 0003				TEXT_MODE_80X25 equ 0003h
				; Prefer the standard 640x480x16 linear mode when the BIOS exposes it. If the
				; guest VBE BIOS declines the enhanced handoff, stage two falls back to the
				; existing VGA presenter instead of aborting the boot flow.
 = 0111				ENHANCED_VBE_MODE equ 0111h
 = 4000				ENHANCED_VBE_LINEAR_FLAG equ 4000h
 = 2000				CODE_BANK_SEG equ 2000h
 = 2800				MAP_BANK_SEG equ 2800h
 = 3000				PRESENT_BANK_SEG equ 3000h
 = 3800				GEOMETRY_BANK_SEG equ 3800h
 = 4000				TEXTURE_BANK_SEG equ 4000h
 = 5000				TEXTURE_BANK_B_SEG equ 5000h
 = 0010				BOOT_DISK_HEADS equ 16
 = 003F				BOOT_DISK_SECTORS_PER_TRACK equ 63
				
 = 0400				HANDOFF_OFFSET     equ 0400h
 = 4252				HANDOFF_SIG0       equ 4252h
 = 5645				HANDOFF_SIG1       equ 5645h
 = 0002				HANDOFF_VERSION    equ 2
 = 0001				HANDOFF_FLAG_VBE   equ 0001h
 = 0001				HANDOFF_PRESENT_FLAG_CAN_PAGE_FLIP equ 0001h
 = 0000				HANDOFF_SIG0_OFF   equ 0
 = 0002				HANDOFF_SIG1_OFF   equ 2
 = 0004				HANDOFF_VERSION_OFF equ 4
 = 0006				HANDOFF_FLAGS_OFF  equ 6
 = 0008				HANDOFF_MODE_OFF   equ 8
 = 000A				HANDOFF_WIDTH_OFF  equ 10
 = 000C				HANDOFF_HEIGHT_OFF equ 12
 = 000E				HANDOFF_PITCH_OFF  equ 14
 = 0010				HANDOFF_LFB_OFF    equ 16
 = 0014				HANDOFF_FRAME_BYTES_OFF equ 20
 = 0018				HANDOFF_IMAGE_PAGES_OFF equ 24
 = 001A				HANDOFF_PRESENT_FLAGS_OFF equ 26
				
 = 0008				FLAT_CODE_SEL equ 08h
 = 0010				FLAT_DATA_SEL equ 10h
				
 0000				start:
 0000  FA			    cli
 0001  8C C8			    mov ax, cs
 0003  8E D8			    mov ds, ax
 0005  8E C0			    mov es, ax
 0007  B8 8800			    mov ax, STACK_SEG
 000A  8E D0			    mov ss, ax
 000C  BC 7FFE			    mov sp, STACK_TOP
 000F  FB			    sti
 0010  FC			    cld
				
 0011  80 FA 80			    cmp dl, 80h
 0014  73 02			    jae bootstrap_drive_ready
 0016  B2 80			    mov dl, 80h
 0018				bootstrap_drive_ready:
 0018  2E: 88 16 03D2 R		    mov [boot_drive], dl
 001D  E8 0017			    call clear_handoff_block
 0020  E8 0029			    call load_stage2_and_banks
 0023  E8 013A			    call setup_vbe_mode
 0026  E8 0310			    call enable_a20_fast_gate
 0029  E8 0318			    call write_handoff_block
				
 002C  2E: 8A 16 03D2 R		    mov dl, [boot_drive]
 0031  68 1000			    push STAGE2_SEG
 0034  6A 00			    push 0000h
 0036  CB			    retf
				
 0037				clear_handoff_block:
 0037  50			    push ax
 0038  51			    push cx
 0039  57			    push di
 003A  8C C8			    mov ax, cs
 003C  8E C0			    mov es, ax
 003E  BF 0400			    mov di, HANDOFF_OFFSET
 0041  33 C0			    xor ax, ax
 0043  B9 000E			    mov cx, 14
 0046  F3/ AB			    rep stosw
 0048  5F			    pop di
 0049  59			    pop cx
 004A  58			    pop ax
 004B  C3			    ret
				
 004C				load_stage2_and_banks:
 004C  B8 0004			    mov ax, STAGE2_LBA
 004F  B9 0080			    mov cx, GAME_SECTORS
 0052  BA 1000			    mov dx, STAGE2_SEG
 0055  8D 36 050A R		    lea si, text_stage2_error
 0059  E8 0061			    call load_payload_or_fail
				
 005C  B8 0084			    mov ax, CODE_BANK_LBA
 005F  B9 0002			    mov cx, CODE_BANK_SECTORS
 0062  BA 2000			    mov dx, CODE_BANK_SEG
 0065  8D 36 0527 R		    lea si, text_code_bank_error
 0069  E8 0051			    call load_payload_or_fail
				
 006C  B8 0086			    mov ax, TEXTURE_BANK_LBA
 006F  B9 0080			    mov cx, TEXTURE_BANK_SECTORS
 0072  BA 4000			    mov dx, TEXTURE_BANK_SEG
 0075  8D 36 0542 R		    lea si, text_texture_bank_error
 0079  E8 0041			    call load_payload_or_fail
				
 007C  B8 0106			    mov ax, TEXTURE_BANK_B_LBA
 007F  B9 0080			    mov cx, TEXTURE_BANK_B_SECTORS
 0082  BA 5000			    mov dx, TEXTURE_BANK_B_SEG
 0085  8D 36 0560 R		    lea si, text_texture_bank_b_error
 0089  E8 0031			    call load_payload_or_fail
				
 008C  B8 0186			    mov ax, MAP_BANK_LBA
 008F  B9 000E			    mov cx, MAP_BANK_SECTORS
 0092  BA 2800			    mov dx, MAP_BANK_SEG
 0095  8D 36 0580 R		    lea si, text_map_bank_error
 0099  E8 0021			    call load_payload_or_fail
				
 009C  B8 0194			    mov ax, PRESENT_BANK_LBA
 009F  B9 0027			    mov cx, PRESENT_BANK_SECTORS
 00A2  BA 3000			    mov dx, PRESENT_BANK_SEG
 00A5  8D 36 059A R		    lea si, text_presentation_bank_error
 00A9  E8 0011			    call load_payload_or_fail
				
 00AC  B8 01BB			    mov ax, GEOMETRY_BANK_LBA
 00AF  B9 001A			    mov cx, GEOMETRY_BANK_SECTORS
 00B2  BA 3800			    mov dx, GEOMETRY_BANK_SEG
 00B5  8D 36 05BD R		    lea si, text_geometry_bank_error
 00B9  E8 0001			    call load_payload_or_fail
 00BC  C3			    ret
				
 00BD				load_payload_or_fail:
 00BD  0B C9			    or cx, cx
 00BF  74 0A			    jz load_payload_done
 00C1  56			    push si
 00C2  E8 0007			    call read_lba_payload
 00C5  5E			    pop si
 00C6  73 03			    jnc load_payload_done
 00C8  E8 02E6			    call fatal_error
 00CB				load_payload_done:
 00CB  C3			    ret
				
 00CC				read_lba_payload:
				    ; Read CX sectors starting at LBA AX into segment DX:0000 using BIOS CHS
				    ; reads. The enhanced HDD image is tiny enough to stay within the BIOS
				    ; translated geometry exposed by VirtualBox, and this path avoids relying
				    ; on an AH=42 extension call that the guest BIOS is rejecting in practice.
 00CC  53			    push bx
 00CD  55			    push bp
 00CE  56			    push si
 00CF  57			    push di
 00D0  8B F0			    mov si, ax
 00D2  8B EA			    mov bp, dx
 00D4  8C C8			    mov ax, cs
 00D6  8E D8			    mov ds, ax
				
 00D8				read_lba_payload_chunk:
 00D8  0B C9			    or cx, cx
 00DA  74 7E			    jz read_lba_payload_done
				
 00DC  8B C6			    mov ax, si
 00DE  33 D2			    xor dx, dx
 00E0  BB 03F0			    mov bx, BOOT_DISK_SECTORS_PER_TRACK * BOOT_DISK_HEADS
 00E3  F7 F3			    div bx
 00E5  2E: A3 03CE R		    mov word ptr [chs_cylinder], ax
 00E9  8B C2			    mov ax, dx
 00EB  33 D2			    xor dx, dx
 00ED  BB 003F			    mov bx, BOOT_DISK_SECTORS_PER_TRACK
 00F0  F7 F3			    div bx
 00F2  2E: 88 16 03D1 R		    mov byte ptr [chs_sector], dl
 00F7  2E: A2 03D0 R		    mov byte ptr [chs_head], al
				
 00FB  B8 003F			    mov ax, BOOT_DISK_SECTORS_PER_TRACK
 00FE  2E: 2A 06 03D1 R		    sub al, byte ptr [chs_sector]
 0103  32 E4    xor ah, ah
 0105  8B F8			    mov di, ax
 0107  3B F9			    cmp di, cx
 0109  76 02			    jbe read_lba_payload_chunk_ready
 010B  8B F9			    mov di, cx
				
 010D				read_lba_payload_chunk_ready:
 010D  51			    push cx
 010E  8B C5			    mov ax, bp
 0110  8E C0			    mov es, ax
 0112  33 DB			    xor bx, bx
 0114  8B C7			    mov ax, di
 0116  B4 02			    mov ah, 02h
 0118  2E: 8B 16 03CE R		    mov dx, word ptr [chs_cylinder]
 011D  8A EA			    mov ch, dl
 011F  2E: 8A 0E 03D1 R		    mov cl, byte ptr [chs_sector]
 0124  FE C1			    inc cl
 0126  8A D6			    mov dl, dh
 0128  80 E2 03			    and dl, 03h
 012B  C0 E2 06			    shl dl, 6
 012E  0A CA			    or cl, dl
 0130  2E: 8A 36 03D0 R		    mov dh, byte ptr [chs_head]
 0135  2E: 8A 16 03D2 R		    mov dl, [boot_drive]
 013A  CD 13			    int 13h
 013C  72 12			    jc read_lba_payload_fail
				
 013E  59			    pop cx
 013F  8C C8			    mov ax, cs
 0141  8E D8			    mov ds, ax
 0143  2B CF			    sub cx, di
 0145  03 F7			    add si, di
 0147  8B C7			    mov ax, di
 0149  C1 E0 05			    shl ax, 5
 014C  03 E8			    add bp, ax
 014E  EB 88			    jmp read_lba_payload_chunk
				
 0150				read_lba_payload_fail:
 0150  59			    pop cx
 0151  8C C8			    mov ax, cs
 0153  8E D8			    mov ds, ax
 0155  5F			    pop di
 0156  5E			    pop si
 0157  5D			    pop bp
 0158  5B			    pop bx
 0159  C3			    ret
				
 015A				read_lba_payload_done:
 015A  F8			    clc
 015B  5F			    pop di
 015C  5E			    pop si
 015D  5D			    pop bp
 015E  5B			    pop bx
 015F  C3			    ret
				
 0160				setup_vbe_mode:
 0160  50			    push ax
 0161  53			    push bx
 0162  51			    push cx
 0163  52			    push dx
 0164  57			    push di
 0165  06			    push es
				
 0166  8C C8			    mov ax, cs
 0168  8E D8			    mov ds, ax
 016A  8E C0			    mov es, ax
 016C  66| 2E: C7 06 040A R	    mov dword ptr [vbe_info_buffer], 'VBE2'
       56424532
 0176  8D 3E 040A R		    lea di, vbe_info_buffer
 017A  B8 4F00			    mov ax, 4F00h
 017D  CD 10			    int 10h
 017F  83 F8 4F			    cmp ax, 004Fh
 0182  75 08			    jne setup_vbe_info_ready
 0184  2E: A1 041C R		    mov ax, word ptr vbe_info_buffer[18]
 0188  2E: A3 03E9 R		    mov [vbe_total_memory_blocks], ax
				
 018C				setup_vbe_info_ready:
 018C  B8 4F02			    mov ax, 4F02h
 018F  BB 0111			    mov bx, ENHANCED_VBE_MODE
 0192  81 CB 4000		    or bx, ENHANCED_VBE_LINEAR_FLAG
 0196  CD 10			    int 10h
 0198  83 F8 4F			    cmp ax, 004Fh
 019B  74 0F			    je setup_vbe_mode_set
 019D  B8 4F02			    mov ax, 4F02h
 01A0  BB 0111			    mov bx, ENHANCED_VBE_MODE
 01A3  CD 10			    int 10h
 01A5  83 F8 4F			    cmp ax, 004Fh
 01A8  0F 85 00D7		    jne setup_vbe_legacy
				
 01AC				setup_vbe_mode_set:
				
 01AC  8D 3E 040A R		    lea di, vbe_info_buffer
 01B0  B8 4F01			    mov ax, 4F01h
 01B3  B9 0111			    mov cx, ENHANCED_VBE_MODE
 01B6  CD 10			    int 10h
 01B8  83 F8 4F			    cmp ax, 004Fh
 01BB  0F 85 00C4		    jne setup_vbe_legacy
				
				    ; VBox's VBE BIOS is functional but not always consistent about the more
				    ; decorative capability bits here. Treat a clean post-set mode-info query
				    ; plus the expected dimensions/depth/LFB address as sufficient, then trust
				    ; the later handoff instead of pre-rejecting the enhanced lane.
 01BF  2E: 81 3E 0416 R		    cmp word ptr vbe_info_buffer[12], 640
       0280
 01C6  0F 85 00B9		    jne setup_vbe_legacy
 01CA  2E: 81 3E 0418 R		    cmp word ptr vbe_info_buffer[14], 480
       01E0
 01D1  0F 85 00AE		    jne setup_vbe_legacy
 01D5  2E: 83 3E 041A R		    cmp word ptr vbe_info_buffer[16], 0
       00
 01DB  0F 84 00A4		    je setup_vbe_legacy
 01DF  2E: 80 3E 0423 R		    cmp byte ptr vbe_info_buffer[25], 16
       10
 01E5  0F 85 009A		    jne setup_vbe_legacy
 01E9  66| 2E: A1 0432 R	    mov eax, dword ptr vbe_info_buffer[40]
 01EE  66| 85 C0		    test eax, eax
 01F1  0F 84 008E		    jz setup_vbe_legacy
				
				    ; VirtualBox can leave the enhanced mode with a non-zero display start,
				    ; which makes the first gameplay frame look like a wrapped torus until the
				    ; presenter explicitly resets it. Normalize the visible origin here so
				    ; stage two always starts from a clean page-0 (0,0) view.
 01F5  B8 4F07			    mov ax, 4F07h
 01F8  BB 0080			    mov bx, 0080h
 01FB  33 C9			    xor cx, cx
 01FD  33 D2			    xor dx, dx
 01FF  CD 10			    int 10h
				    ; Some guest VBE BIOSes expose a valid 640x480x16 LFB mode but decline the
				    ; display-start reset handshake. Keep the enhanced handoff alive anyway and
				    ; let stage two use its safer degraded presenter instead of throwing the
				    ; whole runtime back to mode 13h.
				
 0201  8C C8			    mov ax, cs
 0203  8E D8			    mov ds, ax
 0205  2E: A1 041A R		    mov ax, word ptr vbe_info_buffer[16]
 0209  2E: A3 03DB R		    mov [handoff_pitch], ax
 020D  2E: A1 0416 R		    mov ax, word ptr vbe_info_buffer[12]
 0211  2E: A3 03D7 R		    mov [handoff_width], ax
 0215  2E: A1 0418 R		    mov ax, word ptr vbe_info_buffer[14]
 0219  2E: A3 03D9 R		    mov [handoff_height], ax
 021D  2E: A1 041A R		    mov ax, word ptr vbe_info_buffer[16]
 0221  2E: 8B 16 0418 R		    mov dx, word ptr vbe_info_buffer[14]
 0226  F7 E2			    mul dx
 0228  2E: A3 03E1 R		    mov word ptr [handoff_frame_bytes], ax
 022C  2E: 89 16 03E3 R		    mov word ptr [handoff_frame_bytes + 2], dx
 0231  33 C0			    xor ax, ax
 0233  2E: A0 0427 R		    mov al, byte ptr vbe_info_buffer[29]
 0237  2E: A3 03E5 R		    mov [handoff_image_pages], ax
 023B  66| 2E: A1 0432 R	    mov eax, dword ptr vbe_info_buffer[40]
 0240  66| 2E: A3 03DD R	    mov dword ptr [handoff_lfb], eax
 0245  2E: C7 06 03D3 R		    mov word ptr [handoff_flags], HANDOFF_FLAG_VBE
       0001
 024C  2E: C7 06 03D5 R		    mov word ptr [handoff_mode], ENHANCED_VBE_MODE
       0111
 0253  2E: C7 06 03E7 R		    mov word ptr [handoff_present_flags], 0
       0000
 025A  2E: 83 3E 03E5 R		    cmp word ptr [handoff_image_pages], 0
       00
 0260  77 19			    ja setup_vbe_enable_page_flip
 0262  66| 2E: 0F B7 06		    movzx eax, word ptr [vbe_total_memory_blocks]
       03E9 R
 0269  66| C1 E0 10		    shl eax, 16
 026D  66| 2E: 8B 16 03E1 R	    mov edx, dword ptr [handoff_frame_bytes]
 0273  66| 03 D2		    add edx, edx
 0276  66| 3B C2		    cmp eax, edx
 0279  72 3C			    jb setup_vbe_done
				
 027B				setup_vbe_enable_page_flip:
 027B  2E: 83 0E 03E7 R		    or word ptr [handoff_present_flags], HANDOFF_PRESENT_FLAG_CAN_PAGE_FLIP
       01
 0281  EB 34			    jmp setup_vbe_done
				
 0283				setup_vbe_legacy:
 0283  8C C8			    mov ax, cs
 0285  8E D8			    mov ds, ax
 0287  2E: C7 06 03D3 R		    mov word ptr [handoff_flags], 0
       0000
 028E  2E: C7 06 03D5 R		    mov word ptr [handoff_mode], 0
       0000
 0295  66| 2E: C7 06 03E1 R	    mov dword ptr [handoff_frame_bytes], 0
       00000000
 029F  2E: C7 06 03E5 R		    mov word ptr [handoff_image_pages], 0
       0000
 02A6  2E: C7 06 03E7 R		    mov word ptr [handoff_present_flags], 0
       0000
 02AD  66| 2E: C7 06 03DD R	    mov dword ptr [handoff_lfb], 0
       00000000
				
 02B7				setup_vbe_done:
 02B7  07			    pop es
 02B8  5F			    pop di
 02B9  5A			    pop dx
 02BA  59			    pop cx
 02BB  5B			    pop bx
 02BC  58			    pop ax
 02BD  C3			    ret
				
 02BE				enter_unreal_mode:
 02BE  8C C8			    mov ax, cs
 02C0  8E D8			    mov ds, ax
				
 02C2  66| 33 C0		    xor eax, eax
 02C5  8C C8			    mov ax, cs
 02C7  66| C1 E0 04		    shl eax, 4
 02CB  2E: A3 03F6 R		    mov word ptr [gdt_code + 2], ax
 02CF  66| C1 E8 10		    shr eax, 16
 02D3  2E: A2 03F8 R		    mov byte ptr [gdt_code + 4], al
 02D7  2E: 88 26 03FB R		    mov byte ptr [gdt_code + 7], ah
				
 02DC  66| 33 C0		    xor eax, eax
 02DF  8C C8			    mov ax, cs
 02E1  66| C1 E0 04		    shl eax, 4
 02E5  66| 05 000003EC R	    add eax, OFFSET gdt_start
 02EB  66| 2E: A3 0406 R	    mov dword ptr [gdt_descriptor + 2], eax
				
 02F0  FA			    cli
 02F1  E4 92			    in al, 92h
 02F3  0C 02			    or al, 02h
 02F5  E6 92			    out 92h, al
				
 02F7  2E: 0F 01 16 0404 R	    lgdt fword ptr gdt_descriptor
 02FD  0F 20 C0			    mov eax, cr0
 0300  66| 83 C8 01		    or eax, 1
 0304  0F 22 C0			    mov cr0, eax
 0307  6A 08			    push FLAT_CODE_SEL
 0309  68 030D R		    push OFFSET protected_entry
 030C  CB			    retf
				
 030D				protected_entry:
 030D  B8 0010			    mov ax, FLAT_DATA_SEL
 0310  8E D8			    mov ds, ax
 0312  8E C0			    mov es, ax
 0314  8E E0			    mov fs, ax
 0316  8E E8			    mov gs, ax
				
 0318  0F 20 C0			    mov eax, cr0
 031B  66| 83 E0 FE		    and eax, 0FFFFFFFEh
 031F  0F 22 C0			    mov cr0, eax
 0322  68 0800			    push BOOTSTRAP_SEG
 0325  68 0329 R		    push OFFSET real_mode_entry
 0328  CB			    retf
				
 0329				real_mode_entry:
 0329  8C C8			    mov ax, cs
 032B  8E D8			    mov ds, ax
 032D  8E C0			    mov es, ax
 032F  B8 8800			    mov ax, STACK_SEG
 0332  8E D0			    mov ss, ax
 0334  BC 7FFE			    mov sp, STACK_TOP
 0337  FB			    sti
 0338  C3			    ret
				
 0339				enable_a20_fast_gate:
 0339  50			    push ax
 033A  FA			    cli
 033B  E4 92			    in al, 92h
 033D  0C 02			    or al, 02h
 033F  E6 92			    out 92h, al
 0341  FB			    sti
 0342  58			    pop ax
 0343  C3			    ret
				
 0344				write_handoff_block:
 0344  50			    push ax
 0345  57			    push di
 0346  8C C8			    mov ax, cs
 0348  8E D8			    mov ds, ax
 034A  8C C8			    mov ax, cs
 034C  8E C0			    mov es, ax
 034E  BF 0400			    mov di, HANDOFF_OFFSET
 0351  26: C7 05 4252		    mov word ptr es:[di + HANDOFF_SIG0_OFF], HANDOFF_SIG0
 0356  26: C7 45 02 5645	    mov word ptr es:[di + HANDOFF_SIG1_OFF], HANDOFF_SIG1
 035C  26: C7 45 04 0002	    mov word ptr es:[di + HANDOFF_VERSION_OFF], HANDOFF_VERSION
 0362  2E: A1 03D3 R		    mov ax, [handoff_flags]
 0366  26: 89 45 06		    mov word ptr es:[di + HANDOFF_FLAGS_OFF], ax
 036A  2E: A1 03D5 R		    mov ax, [handoff_mode]
 036E  26: 89 45 08		    mov word ptr es:[di + HANDOFF_MODE_OFF], ax
 0372  2E: A1 03D7 R		    mov ax, [handoff_width]
 0376  26: 89 45 0A		    mov word ptr es:[di + HANDOFF_WIDTH_OFF], ax
 037A  2E: A1 03D9 R		    mov ax, [handoff_height]
 037E  26: 89 45 0C		    mov word ptr es:[di + HANDOFF_HEIGHT_OFF], ax
 0382  2E: A1 03DB R		    mov ax, [handoff_pitch]
 0386  26: 89 45 0E		    mov word ptr es:[di + HANDOFF_PITCH_OFF], ax
 038A  66| 2E: A1 03DD R	    mov eax, dword ptr [handoff_lfb]
 038F  66| 26: 89 45 10		    mov dword ptr es:[di + HANDOFF_LFB_OFF], eax
 0394  66| 2E: A1 03E1 R	    mov eax, dword ptr [handoff_frame_bytes]
 0399  66| 26: 89 45 14		    mov dword ptr es:[di + HANDOFF_FRAME_BYTES_OFF], eax
 039E  2E: A1 03E5 R		    mov ax, [handoff_image_pages]
 03A2  26: 89 45 18		    mov word ptr es:[di + HANDOFF_IMAGE_PAGES_OFF], ax
 03A6  2E: A1 03E7 R		    mov ax, [handoff_present_flags]
 03AA  26: 89 45 1A		    mov word ptr es:[di + HANDOFF_PRESENT_FLAGS_OFF], ax
 03AE  5F			    pop di
 03AF  58			    pop ax
 03B0  C3			    ret
				
 03B1				fatal_error:
 03B1  8C C8			    mov ax, cs
 03B3  8E D8			    mov ds, ax
 03B5  B8 0003			    mov ax, TEXT_MODE_80X25
 03B8  CD 10			    int 10h
				
 03BA				fatal_error_loop:
 03BA  AC			    lodsb
 03BB  0A C0			    or al, al
 03BD  74 0A			    jz fatal_halt
 03BF  B4 0E			    mov ah, 0Eh
 03C1  B7 00			    mov bh, 00h
 03C3  B3 0C			    mov bl, 0Ch
 03C5  CD 10			    int 10h
 03C7  EB F1			    jmp fatal_error_loop
				
 03C9				fatal_halt:
 03C9  FA			    cli
 03CA				fatal_spin:
 03CA  F4			    hlt
 03CB  EB FD			    jmp fatal_spin
				
 03CD  00			db 0
 03CE 0000			chs_cylinder dw 0
 03D0 00			chs_head db 0
 03D1 00			chs_sector db 0
				
 03D2 00			boot_drive db 0
 03D3 0000			handoff_flags  dw 0
 03D5 0000			handoff_mode   dw 0
 03D7 0280			handoff_width  dw 640
 03D9 01E0			handoff_height dw 480
 03DB 0280			handoff_pitch  dw 640
 03DD 00000000			handoff_lfb    dd 0
 03E1 00000000			handoff_frame_bytes dd 0
 03E5 0000			handoff_image_pages dw 0
 03E7 0000			handoff_present_flags dw 0
 03E9 0000			vbe_total_memory_blocks dw 0
				
				even
 03EC				gdt_start label byte
 03EC				gdt_null dq 0
       0000000000000000
 03F4 FFFF 0000			gdt_code dw 0FFFFh, 0000h
 03F8  00 9A 00 00		         db 00h, 09Ah, 00h, 00h
 03FC FFFF 0000			gdt_data dw 0FFFFh, 0000h
 0400  00 92 8F 00		         db 00h, 092h, 08Fh, 00h
 0404				gdt_end label byte
 0404 0017			gdt_descriptor dw gdt_end - gdt_start - 1
 0406  00000000			               dd 0
				
				even
 040A  0100 [			vbe_info_buffer db 256 dup (0)
        00
       ]
				
 050A 43 59 42 45 52 53		text_stage2_error db 'CYBERSTORM STAGE2 LOAD ERROR', 0
       54 4F 52 4D 20 53
       54 41 47 45 32 20
       4C 4F 41 44 20 45
       52 52 4F 52 00
 0527 43 59 42 45 52 53		text_code_bank_error db 'CYBERSTORM CODE BANK ERROR', 0
       54 4F 52 4D 20 43
       4F 44 45 20 42 41
       4E 4B 20 45 52 52
       4F 52 00
 0542 43 59 42 45 52 53		text_texture_bank_error db 'CYBERSTORM TEXTURE BANK ERROR', 0
       54 4F 52 4D 20 54
       45 58 54 55 52 45
       20 42 41 4E 4B 20
       45 52 52 4F 52 00
 0560 43 59 42 45 52 53		text_texture_bank_b_error db 'CYBERSTORM TEXTURE BANK B ERROR', 0
       54 4F 52 4D 20 54
       45 58 54 55 52 45
       20 42 41 4E 4B 20
       42 20 45 52 52 4F
       52 00
 0580 43 59 42 45 52 53		text_map_bank_error db 'CYBERSTORM MAP BANK ERROR', 0
       54 4F 52 4D 20 4D
       41 50 20 42 41 4E
       4B 20 45 52 52 4F
       52 00
 059A 43 59 42 45 52 53		text_presentation_bank_error db 'CYBERSTORM PRESENTATION BANK ERROR', 0
       54 4F 52 4D 20 50
       52 45 53 45 4E 54
       41 54 49 4F 4E 20
       42 41 4E 4B 20 45
       52 52 4F 52 00
 05BD 43 59 42 45 52 53		text_geometry_bank_error db 'CYBERSTORM GEOMETRY BANK ERROR', 0
       54 4F 52 4D 20 47
       45 4F 4D 45 54 52
       59 20 42 41 4E 4B
       20 45 52 52 4F 52
       00
				
				end start
C:\Users\RhythmicCarnage\Desktop\CyberStorm\src\bootstrap.asm(518) : warning A4023:with /coff switch, leading underscore required for start address : start
Microsoft (R) Macro Assembler Version 14.40.33812.0	    04/24/26 12:18:38
C:\Users\RhythmicCarnage\Desktop\CyberStorm\src\bootstrap.asm  Symbols 2 - 1




Segments and Groups:

                N a m e                 Size     Length   Align   Combine Class

_DATA  . . . . . . . . . . . . .	16 Bit	 0000	  Word	  Public  'DATA'	
_TEXT  . . . . . . . . . . . . .	16 Bit	 05DC	  Word	  Public  'CODE'	


Symbols:

                N a m e                 Type     Value    Attr

@CodeSize  . . . . . . . . . . .	Number	 0000h	 
@DataSize  . . . . . . . . . . .	Number	 0000h	 
@Interface . . . . . . . . . . .	Number	 0000h	 
@Model . . . . . . . . . . . . .	Number	 0001h	 
@code  . . . . . . . . . . . . .	Text   	 DGROUP
@data  . . . . . . . . . . . . .	Text   	 DGROUP
@fardata?  . . . . . . . . . . .	Text   	 FAR_BSS
@fardata . . . . . . . . . . . .	Text   	 FAR_DATA
@stack . . . . . . . . . . . . .	Text   	 DGROUP
BOOTSTRAP_PHYS . . . . . . . . .	Number	 8000h	 
BOOTSTRAP_SECTORS  . . . . . . .	Number	 0003h	 
BOOTSTRAP_SEG  . . . . . . . . .	Number	 0800h	 
BOOT_DISK_HEADS  . . . . . . . .	Number	 0010h	 
BOOT_DISK_SECTORS_PER_TRACK  . .	Number	 003Fh	 
CODE_BANK_BYTES  . . . . . . . .	Number	 02A4h	 
CODE_BANK_LBA  . . . . . . . . .	Number	 0084h	 
CODE_BANK_PADDED_BYTES . . . . .	Number	 0400h	 
CODE_BANK_SECTORS  . . . . . . .	Number	 0002h	 
CODE_BANK_SEG  . . . . . . . . .	Number	 2000h	 
ENHANCED_VBE_LINEAR_FLAG . . . .	Number	 4000h	 
ENHANCED_VBE_MODE  . . . . . . .	Number	 0111h	 
FLAT_CODE_SEL  . . . . . . . . .	Number	 0008h	 
FLAT_DATA_SEL  . . . . . . . . .	Number	 0010h	 
GAME_SECTORS . . . . . . . . . .	Number	 0080h	 
GEOMETRY_BANK_BYTES  . . . . . .	Number	 334Ah	 
GEOMETRY_BANK_LBA  . . . . . . .	Number	 01BBh	 
GEOMETRY_BANK_PADDED_BYTES . . .	Number	 3400h	 
GEOMETRY_BANK_SECTORS  . . . . .	Number	 001Ah	 
GEOMETRY_BANK_SEG  . . . . . . .	Number	 3800h	 
HANDOFF_FLAGS_OFF  . . . . . . .	Number	 0006h	 
HANDOFF_FLAG_VBE . . . . . . . .	Number	 0001h	 
HANDOFF_FRAME_BYTES_OFF  . . . .	Number	 0014h	 
HANDOFF_HEIGHT_OFF . . . . . . .	Number	 000Ch	 
HANDOFF_IMAGE_PAGES_OFF  . . . .	Number	 0018h	 
HANDOFF_LFB_OFF  . . . . . . . .	Number	 0010h	 
HANDOFF_MODE_OFF . . . . . . . .	Number	 0008h	 
HANDOFF_OFFSET . . . . . . . . .	Number	 0400h	 
HANDOFF_PITCH_OFF  . . . . . . .	Number	 000Eh	 
HANDOFF_PRESENT_FLAGS_OFF  . . .	Number	 001Ah	 
HANDOFF_PRESENT_FLAG_CAN_PAGE_FLIP .	Number	 0001h	 
HANDOFF_SIG0_OFF . . . . . . . .	Number	 0000h	 
HANDOFF_SIG0 . . . . . . . . . .	Number	 4252h	 
HANDOFF_SIG1_OFF . . . . . . . .	Number	 0002h	 
HANDOFF_SIG1 . . . . . . . . . .	Number	 5645h	 
HANDOFF_VERSION_OFF  . . . . . .	Number	 0004h	 
HANDOFF_VERSION  . . . . . . . .	Number	 0002h	 
HANDOFF_WIDTH_OFF  . . . . . . .	Number	 000Ah	 
MAP_BANK_BYTES . . . . . . . . .	Number	 1AC5h	 
MAP_BANK_LBA . . . . . . . . . .	Number	 0186h	 
MAP_BANK_PADDED_BYTES  . . . . .	Number	 1C00h	 
MAP_BANK_SECTORS . . . . . . . .	Number	 000Eh	 
MAP_BANK_SEG . . . . . . . . . .	Number	 2800h	 
PRESENT_BANK_BYTES . . . . . . .	Number	 4E00h	 
PRESENT_BANK_LBA . . . . . . . .	Number	 0194h	 
PRESENT_BANK_PADDED_BYTES  . . .	Number	 4E00h	 
PRESENT_BANK_SECTORS . . . . . .	Number	 0027h	 
PRESENT_BANK_SEG . . . . . . . .	Number	 3000h	 
STACK_SEG  . . . . . . . . . . .	Number	 8800h	 
STACK_TOP  . . . . . . . . . . .	Number	 7FFEh	 
STAGE2_LBA . . . . . . . . . . .	Number	 0004h	 
STAGE2_SEG . . . . . . . . . . .	Number	 1000h	 
TEXTURE_BANK_BYTES . . . . . . .	Number	 00010000h   
TEXTURE_BANK_B_BYTES . . . . . .	Number	 00010000h   
TEXTURE_BANK_B_LBA . . . . . . .	Number	 0106h	 
TEXTURE_BANK_B_PADDED_BYTES  . .	Number	 00010000h   
TEXTURE_BANK_B_SECTORS . . . . .	Number	 0080h	 
TEXTURE_BANK_B_SEG . . . . . . .	Number	 5000h	 
TEXTURE_BANK_LBA . . . . . . . .	Number	 0086h	 
TEXTURE_BANK_PADDED_BYTES  . . .	Number	 00010000h   
TEXTURE_BANK_SECTORS . . . . . .	Number	 0080h	 
TEXTURE_BANK_SEG . . . . . . . .	Number	 4000h	 
TEXT_MODE_80X25  . . . . . . . .	Number	 0003h	 
boot_drive . . . . . . . . . . .	Byte	 03D2	  _TEXT	
bootstrap_drive_ready  . . . . .	L Near	 0018	  _TEXT	
chs_cylinder . . . . . . . . . .	Word	 03CE	  _TEXT	
chs_head . . . . . . . . . . . .	Byte	 03D0	  _TEXT	
chs_sector . . . . . . . . . . .	Byte	 03D1	  _TEXT	
clear_handoff_block  . . . . . .	L Near	 0037	  _TEXT	
enable_a20_fast_gate . . . . . .	L Near	 0339	  _TEXT	
enter_unreal_mode  . . . . . . .	L Near	 02BE	  _TEXT	
fatal_error_loop . . . . . . . .	L Near	 03BA	  _TEXT	
fatal_error  . . . . . . . . . .	L Near	 03B1	  _TEXT	
fatal_halt . . . . . . . . . . .	L Near	 03C9	  _TEXT	
fatal_spin . . . . . . . . . . .	L Near	 03CA	  _TEXT	
gdt_code . . . . . . . . . . . .	Word	 03F4	  _TEXT	
gdt_data . . . . . . . . . . . .	Word	 03FC	  _TEXT	
gdt_descriptor . . . . . . . . .	Word	 0404	  _TEXT	
gdt_end  . . . . . . . . . . . .	Byte	 0404	  _TEXT	
gdt_null . . . . . . . . . . . .	QWord	 03EC	  _TEXT	
gdt_start  . . . . . . . . . . .	Byte	 03EC	  _TEXT	
handoff_flags  . . . . . . . . .	Word	 03D3	  _TEXT	
handoff_frame_bytes  . . . . . .	DWord	 03E1	  _TEXT	
handoff_height . . . . . . . . .	Word	 03D9	  _TEXT	
handoff_image_pages  . . . . . .	Word	 03E5	  _TEXT	
handoff_lfb  . . . . . . . . . .	DWord	 03DD	  _TEXT	
handoff_mode . . . . . . . . . .	Word	 03D5	  _TEXT	
handoff_pitch  . . . . . . . . .	Word	 03DB	  _TEXT	
handoff_present_flags  . . . . .	Word	 03E7	  _TEXT	
handoff_width  . . . . . . . . .	Word	 03D7	  _TEXT	
load_payload_done  . . . . . . .	L Near	 00CB	  _TEXT	
load_payload_or_fail . . . . . .	L Near	 00BD	  _TEXT	
load_stage2_and_banks  . . . . .	L Near	 004C	  _TEXT	
protected_entry  . . . . . . . .	L Near	 030D	  _TEXT	
read_lba_payload_chunk_ready . .	L Near	 010D	  _TEXT	
read_lba_payload_chunk . . . . .	L Near	 00D8	  _TEXT	
read_lba_payload_done  . . . . .	L Near	 015A	  _TEXT	
read_lba_payload_fail  . . . . .	L Near	 0150	  _TEXT	
read_lba_payload . . . . . . . .	L Near	 00CC	  _TEXT	
real_mode_entry  . . . . . . . .	L Near	 0329	  _TEXT	
setup_vbe_done . . . . . . . . .	L Near	 02B7	  _TEXT	
setup_vbe_enable_page_flip . . .	L Near	 027B	  _TEXT	
setup_vbe_info_ready . . . . . .	L Near	 018C	  _TEXT	
setup_vbe_legacy . . . . . . . .	L Near	 0283	  _TEXT	
setup_vbe_mode_set . . . . . . .	L Near	 01AC	  _TEXT	
setup_vbe_mode . . . . . . . . .	L Near	 0160	  _TEXT	
start  . . . . . . . . . . . . .	L Near	 0000	  _TEXT	Public
text_code_bank_error . . . . . .	Byte	 0527	  _TEXT	
text_geometry_bank_error . . . .	Byte	 05BD	  _TEXT	
text_map_bank_error  . . . . . .	Byte	 0580	  _TEXT	
text_presentation_bank_error . .	Byte	 059A	  _TEXT	
text_stage2_error  . . . . . . .	Byte	 050A	  _TEXT	
text_texture_bank_b_error  . . .	Byte	 0560	  _TEXT	
text_texture_bank_error  . . . .	Byte	 0542	  _TEXT	
vbe_info_buffer  . . . . . . . .	Byte	 040A	  _TEXT	
vbe_total_memory_blocks  . . . .	Word	 03E9	  _TEXT	
write_handoff_block  . . . . . .	L Near	 0344	  _TEXT	

	   1 Warnings
	   0 Errors
