Microsoft (R) Macro Assembler Version 14.40.33812.0	    03/28/26 11:13:28
C:\Users\RhythmicCarnage\Desktop\CyberStorm\src\game.asm     Page 1 - 1


				.model tiny
 0000				.code
				org 0
				
				; boot.asm far-returns to 1000:0000, so stage two must begin with executable
				; code at byte 0 regardless of how the modules below are reorganized.
 0000  E9 032E			jmp start
				
				include game\constants.inc
 = 0000			      C STATE_TITLE    equ 0
 = 0001			      C STATE_PLAYING  equ 1
 = 0002			      C STATE_WIN      equ 2
 = 0003			      C STATE_LOSE     equ 3
 = 0004			      C STATE_SPLASH   equ 4
			      C 
 = 0036			      C SPLASH_DURATION equ 54
			      C 
 = 0140			      C SCREEN_W      equ 320
 = 00C8			      C SCREEN_H      equ 200
 = FA00			      C SCREEN_PIXELS equ SCREEN_W * SCREEN_H
 = 7D00			      C SCREEN_WORDS  equ SCREEN_PIXELS / 2
			      C 
 = 0008			      C TILE_SIZE     equ 8
 = 0003			      C TILE_SHIFT    equ 3
			      C 
 = 000D			      C KEY_ENTER      equ 0Dh
 = 001C			      C SCAN_ENTER     equ 1Ch
 = 0011			      C SCAN_W         equ 11h
 = 001E			      C SCAN_A         equ 1Eh
 = 001F			      C SCAN_S         equ 1Fh
 = 0020			      C SCAN_D         equ 20h
 = 002E			      C SCAN_C         equ 2Eh
 = 0080			      C SCAN_EXT_FLAG  equ 80h
 = 00C8			      C SCAN_UP_EXT    equ 0C8h
 = 00CB			      C SCAN_LEFT_EXT  equ 0CBh
 = 00CD			      C SCAN_RIGHT_EXT equ 0CDh
 = 00D0			      C SCAN_DOWN_EXT  equ 0D0h
 = 0010			      C KEY_QUEUE_SIZE equ 16
 = 000F			      C KEY_QUEUE_MASK equ 0Fh
 = 0100			      C KEY_STATE_TABLE_BYTES  equ 256
 = 0200			      C KEY_STATE_REGION_BYTES equ KEY_STATE_TABLE_BYTES * 2
			      C 
 = 0000			      C MSG_SECTOR     equ 0
 = 0001			      C MSG_BLOCK      equ 1
 = 0002			      C MSG_SHARD      equ 2
 = 0003			      C MSG_GATE       equ 3
 = 0004			      C MSG_HIT        equ 4
 = 0005			      C MSG_KILL       equ 5
 = 0006			      C MSG_PULSE      equ 6
 = 0007			      C MSG_NOPULSE    equ 7
			      C 
 = 0000			      C TILE_FLOOR        equ 0
 = 0001			      C TILE_WALL         equ 1
 = 0002			      C TILE_SHARD        equ 2
 = 0003			      C TILE_EXIT_LOCKED  equ 3
 = 0004			      C TILE_EXIT_OPEN    equ 4
			      C 
 = 001C			      C MAP_W         equ 28
 = 000F			      C MAP_H         equ 15
 = 01A4			      C MAP_SIZE      equ 420
 = 0014			      C MAP_PIXEL_X   equ 20
 = 002C			      C MAP_PIXEL_Y   equ 44
 = 0001			      C PLAY_MIN_X    equ 1
 = 0001			      C PLAY_MIN_Y    equ 1
 = 001A			      C PLAY_MAX_X    equ MAP_W - 2
 = 000D			      C PLAY_MAX_Y    equ MAP_H - 2
			      C 
 = 0002			      C START_X       equ 2
 = 000D			      C START_Y       equ 13
 = 0019			      C EXIT_COL      equ 25
 = 0001			      C EXIT_ROW      equ 1
			      C 
 = 0003			      C TOTAL_SECTORS     equ 3
 = 0005			      C START_SHIELDS     equ 5
 = 0003			      C START_PULSES      equ 3
 = 0005			      C MAX_PULSES        equ 5
 = 0002			      C ENEMY_SPAWN_STEP  equ 2
 = 0003			      C ENEMY_SPAWN_BASE  equ 3
			      C 
 = 000A			      C MAX_ENEMIES   equ 10
 = 0000			      C ENEMY_ALIVE   equ 0
 = 0001			      C ENEMY_X       equ 1
 = 0002			      C ENEMY_Y       equ 2
 = 0003			      C ENEMY_SIZE    equ 3
 = 0004			      C SHARD_COUNT   equ 4
			      C 
 = 0006			      C SAFE_X_MAX    equ 6
 = 000A			      C SAFE_Y_MIN    equ 10
			      C 
 = 9000			      C BACKBUFFER_SEG equ 9000h
 = A000			      C VGA_SEG        equ 0A000h
			      C 
 = 0000			      C PAL_BLACK      equ 0
 = 0001			      C PAL_BG0        equ 1
 = 0002			      C PAL_BG1        equ 2
 = 0003			      C PAL_PANEL      equ 3
 = 0004			      C PAL_PANEL2     equ 4
 = 0005			      C PAL_CYAN       equ 5
 = 0006			      C PAL_CYAN2      equ 6
 = 0007			      C PAL_WHITE      equ 7
 = 0008			      C PAL_AMBER      equ 8
 = 0009			      C PAL_RED        equ 9
 = 000A			      C PAL_RED2       equ 10
 = 000B			      C PAL_WALL       equ 11
 = 000C			      C PAL_WALL2      equ 12
 = 000D			      C PAL_FLOOR      equ 13
 = 000E			      C PAL_FLOOR2     equ 14
 = 000F			      C PAL_PLAYER     equ 15
 = 0010			      C PAL_ENEMY      equ 16
 = 0011			      C PAL_GATE       equ 17
			      C 
				include game\input.asm
 0003			      C install_keyboard_handler:
			      C     ; The game owns the machine once stage two starts, so IRQ1 is redirected to
			      C     ; a private handler instead of chaining through BIOS keyboard services.
 0003  50		      C     push ax
 0004  06		      C     push es
 0005  FA		      C     cli
 0006  33 C0		      C     xor ax, ax
 0008  8E C0		      C     mov es, ax
 000A  26: C7 06 0024	      C     mov word ptr es:[9 * 4], offset keyboard_irq_handler
       0230 R
 0011  26: 8C 0E 0026	      C     mov word ptr es:[9 * 4 + 2], cs
 0016  FB		      C     sti
 0017  07		      C     pop es
 0018  58		      C     pop ax
 0019  C3		      C     ret
			      C 
 001A			      C reset_keyboard_state:
 001A  50		      C     push ax
 001B  51		      C     push cx
 001C  57		      C     push di
 001D  06		      C     push es
 001E  2E: C6 06 13A8 R	      C     mov byte ptr [key_extended], 0
       00
 0024  2E: C6 06 13A9 R	      C     mov byte ptr [any_key_pending], 0
       00
 002A  2E: C6 06 13AA R	      C     mov byte ptr [input_event_count], 0
       00
 0030  2E: C6 06 13AB R	      C     mov byte ptr [input_last_code], 0
       00
 0036  2E: C6 06 13AC R	      C     mov byte ptr [input_check_count], 0
       00
 003C  2E: C6 06 13AD R	      C     mov byte ptr [input_poll_count], 0
       00
 0042  2E: C6 06 13AE R	      C     mov byte ptr [input_last_polled], 0
       00
 0048  2E: C6 06 13AF R	      C     mov byte ptr [pressed_enter], 0
       00
 004E  2E: C6 06 13B0 R	      C     mov byte ptr [pressed_w], 0
       00
 0054  2E: C6 06 13B1 R	      C     mov byte ptr [pressed_a], 0
       00
 005A  2E: C6 06 13B2 R	      C     mov byte ptr [pressed_s], 0
       00
 0060  2E: C6 06 13B3 R	      C     mov byte ptr [pressed_d], 0
       00
 0066  2E: C6 06 13B4 R	      C     mov byte ptr [pressed_c], 0
       00
 006C  2E: C6 06 13B5 R	      C     mov byte ptr [pressed_up], 0
       00
 0072  2E: C6 06 13B6 R	      C     mov byte ptr [pressed_left], 0
       00
 0078  2E: C6 06 13B7 R	      C     mov byte ptr [pressed_right], 0
       00
 007E  2E: C6 06 13B8 R	      C     mov byte ptr [pressed_down], 0
       00
 0084  1E		      C     push ds
 0085  07		      C     pop es
 0086  BF 13B9 R	      C     mov di, offset key_down
			      C     ; key_down and key_pressed are cleared together and must remain adjacent.
 0089  B9 0200		      C     mov cx, KEY_STATE_REGION_BYTES
 008C  32 C0		      C     xor al, al
 008E  F3/ AA		      C     rep stosb
 0090  07		      C     pop es
 0091  5F		      C     pop di
 0092  59		      C     pop cx
 0093  58		      C     pop ax
 0094  C3		      C     ret
			      C 
 0095			      C poll_key_event:
			      C     ; The main loop consumes pressed_* latches directly. This translator remains
			      C     ; available for diagnostics and any future BIOS-style callers.
 0095  2E: 80 3E 13AC R	      C     cmp byte ptr [input_check_count], 99
       63
 009B  73 05		      C     jae poll_check_ready
 009D  2E: FE 06 13AC R	      C     inc byte ptr [input_check_count]
 00A2			      C poll_check_ready:
 00A2  2E: 80 3E 13AF R	      C     cmp byte ptr [pressed_enter], 0
       00
 00A8  75 60		      C     jne poll_key_enter
 00AA  2E: 80 3E 13B0 R	      C     cmp byte ptr [pressed_w], 0
       00
 00B0  75 69		      C     jne poll_key_w
 00B2  2E: 80 3E 13B1 R	      C     cmp byte ptr [pressed_a], 0
       00
 00B8  75 72		      C     jne poll_key_a
 00BA  2E: 80 3E 13B2 R	      C     cmp byte ptr [pressed_s], 0
       00
 00C0  75 7A		      C     jne poll_key_s
 00C2  2E: 80 3E 13B3 R	      C     cmp byte ptr [pressed_d], 0
       00
 00C8  0F 85 0080	      C     jne poll_key_d
 00CC  2E: 80 3E 13B4 R	      C     cmp byte ptr [pressed_c], 0
       00
 00D2  0F 85 0086	      C     jne poll_key_c
 00D6  2E: 80 3E 13B5 R	      C     cmp byte ptr [pressed_up], 0
       00
 00DC  0F 85 008C	      C     jne poll_key_up
 00E0  2E: 80 3E 13B6 R	      C     cmp byte ptr [pressed_left], 0
       00
 00E6  0F 85 0092	      C     jne poll_key_left
 00EA  2E: 80 3E 13B7 R	      C     cmp byte ptr [pressed_right], 0
       00
 00F0  0F 85 0098	      C     jne poll_key_right
 00F4  2E: 80 3E 13B8 R	      C     cmp byte ptr [pressed_down], 0
       00
 00FA  0F 85 009E	      C     jne poll_key_down
 00FE  2E: 80 3E 13A9 R	      C     cmp byte ptr [any_key_pending], 0
       00
 0104  0F 85 00A4	      C     jne poll_key_unknown
 0108  F8		      C     clc
 0109  C3		      C     ret
			      C 
 010A			      C poll_key_enter:
 010A  2E: C6 06 13AF R	      C     mov byte ptr [pressed_enter], 0
       00
 0110  2E: C6 06 13A9 R	      C     mov byte ptr [any_key_pending], 0
       00
 0116  B0 1C		      C     mov al, SCAN_ENTER
 0118  E9 0099		      C     jmp poll_key_ready
			      C 
 011B			      C poll_key_w:
 011B  2E: C6 06 13B0 R	      C     mov byte ptr [pressed_w], 0
       00
 0121  2E: C6 06 13A9 R	      C     mov byte ptr [any_key_pending], 0
       00
 0127  B0 11		      C     mov al, SCAN_W
 0129  E9 0088		      C     jmp poll_key_ready
			      C 
 012C			      C poll_key_a:
 012C  2E: C6 06 13B1 R	      C     mov byte ptr [pressed_a], 0
       00
 0132  2E: C6 06 13A9 R	      C     mov byte ptr [any_key_pending], 0
       00
 0138  B0 1E		      C     mov al, SCAN_A
 013A  EB 78		      C     jmp poll_key_ready
			      C 
 013C			      C poll_key_s:
 013C  2E: C6 06 13B2 R	      C     mov byte ptr [pressed_s], 0
       00
 0142  2E: C6 06 13A9 R	      C     mov byte ptr [any_key_pending], 0
       00
 0148  B0 1F		      C     mov al, SCAN_S
 014A  EB 68		      C     jmp poll_key_ready
			      C 
 014C			      C poll_key_d:
 014C  2E: C6 06 13B3 R	      C     mov byte ptr [pressed_d], 0
       00
 0152  2E: C6 06 13A9 R	      C     mov byte ptr [any_key_pending], 0
       00
 0158  B0 20		      C     mov al, SCAN_D
 015A  EB 58		      C     jmp poll_key_ready
			      C 
 015C			      C poll_key_c:
 015C  2E: C6 06 13B4 R	      C     mov byte ptr [pressed_c], 0
       00
 0162  2E: C6 06 13A9 R	      C     mov byte ptr [any_key_pending], 0
       00
 0168  B0 2E		      C     mov al, SCAN_C
 016A  EB 48		      C     jmp poll_key_ready
			      C 
 016C			      C poll_key_up:
 016C  2E: C6 06 13B5 R	      C     mov byte ptr [pressed_up], 0
       00
 0172  2E: C6 06 13A9 R	      C     mov byte ptr [any_key_pending], 0
       00
 0178  B0 C8		      C     mov al, SCAN_UP_EXT
 017A  EB 38		      C     jmp poll_key_ready
			      C 
 017C			      C poll_key_left:
 017C  2E: C6 06 13B6 R	      C     mov byte ptr [pressed_left], 0
       00
 0182  2E: C6 06 13A9 R	      C     mov byte ptr [any_key_pending], 0
       00
 0188  B0 CB		      C     mov al, SCAN_LEFT_EXT
 018A  EB 28		      C     jmp poll_key_ready
			      C 
 018C			      C poll_key_right:
 018C  2E: C6 06 13B7 R	      C     mov byte ptr [pressed_right], 0
       00
 0192  2E: C6 06 13A9 R	      C     mov byte ptr [any_key_pending], 0
       00
 0198  B0 CD		      C     mov al, SCAN_RIGHT_EXT
 019A  EB 18		      C     jmp poll_key_ready
			      C 
 019C			      C poll_key_down:
 019C  2E: C6 06 13B8 R	      C     mov byte ptr [pressed_down], 0
       00
 01A2  2E: C6 06 13A9 R	      C     mov byte ptr [any_key_pending], 0
       00
 01A8  B0 D0		      C     mov al, SCAN_DOWN_EXT
 01AA  EB 08		      C     jmp poll_key_ready
			      C 
 01AC			      C poll_key_unknown:
 01AC  2E: C6 06 13A9 R	      C     mov byte ptr [any_key_pending], 0
       00
 01B2  32 C0		      C     xor al, al
			      C 
 01B4			      C poll_key_ready:
 01B4  2E: A2 13AE R	      C     mov [input_last_polled], al
 01B8  2E: 80 3E 13AD R	      C     cmp byte ptr [input_poll_count], 99
       63
 01BE  73 05		      C     jae poll_count_ready
 01C0  2E: FE 06 13AD R	      C     inc byte ptr [input_poll_count]
 01C5			      C poll_count_ready:
 01C5  E8 0002		      C     call translate_key_event
 01C8  F9		      C     stc
 01C9  C3		      C     ret
			      C 
 01CA			      C translate_key_event:
 01CA  8A E0		      C     mov ah, al
 01CC  3C 11		      C     cmp al, SCAN_W
 01CE  75 03		      C     jne key_check_a
 01D0  B0 77		      C     mov al, 'w'
 01D2  C3		      C     ret
			      C 
 01D3			      C key_check_a:
 01D3  3C 1E		      C     cmp al, SCAN_A
 01D5  75 03		      C     jne key_check_s
 01D7  B0 61		      C     mov al, 'a'
 01D9  C3		      C     ret
			      C 
 01DA			      C key_check_s:
 01DA  3C 1F		      C     cmp al, SCAN_S
 01DC  75 03		      C     jne key_check_d
 01DE  B0 73		      C     mov al, 's'
 01E0  C3		      C     ret
			      C 
 01E1			      C key_check_d:
 01E1  3C 20		      C     cmp al, SCAN_D
 01E3  75 03		      C     jne key_check_c
 01E5  B0 64		      C     mov al, 'd'
 01E7  C3		      C     ret
			      C 
 01E8			      C key_check_c:
 01E8  3C 2E		      C     cmp al, SCAN_C
 01EA  75 03		      C     jne key_check_enter
 01EC  B0 63		      C     mov al, 'c'
 01EE  C3		      C     ret
			      C 
 01EF			      C key_check_enter:
 01EF  3C 1C		      C     cmp al, SCAN_ENTER
 01F1  74 04		      C     je key_enter_match
 01F3  3C 9C		      C     cmp al, (SCAN_ENTER or SCAN_EXT_FLAG)
 01F5  75 05		      C     jne key_check_up
			      C 
 01F7			      C key_enter_match:
 01F7  B0 0D		      C     mov al, KEY_ENTER
 01F9  B4 1C		      C     mov ah, SCAN_ENTER
 01FB  C3		      C     ret
			      C 
 01FC			      C key_check_up:
 01FC  3C C8		      C     cmp al, SCAN_UP_EXT
 01FE  75 05		      C     jne key_check_left
 0200  32 C0		      C     xor al, al
 0202  B4 48		      C     mov ah, 48h
 0204  C3		      C     ret
			      C 
 0205			      C key_check_left:
 0205  3C CB		      C     cmp al, SCAN_LEFT_EXT
 0207  75 05		      C     jne key_check_right
 0209  32 C0		      C     xor al, al
 020B  B4 4B		      C     mov ah, 4Bh
 020D  C3		      C     ret
			      C 
 020E			      C key_check_right:
 020E  3C CD		      C     cmp al, SCAN_RIGHT_EXT
 0210  75 05		      C     jne key_check_down
 0212  32 C0		      C     xor al, al
 0214  B4 4D		      C     mov ah, 4Dh
 0216  C3		      C     ret
			      C 
 0217			      C key_check_down:
 0217  3C D0		      C     cmp al, SCAN_DOWN_EXT
 0219  75 05		      C     jne key_unknown
 021B  32 C0		      C     xor al, al
 021D  B4 50		      C     mov ah, 50h
 021F  C3		      C     ret
			      C 
 0220			      C key_unknown:
 0220  32 C0		      C     xor al, al
 0222  C3		      C     ret
			      C 
 0223			      C is_enter_key:
 0223  3C 0D		      C     cmp al, KEY_ENTER
 0225  74 07		      C     je enter_key_true
 0227  80 FC 1C		      C     cmp ah, SCAN_ENTER
 022A  74 02		      C     je enter_key_true
 022C  F8		      C     clc
 022D  C3		      C     ret
			      C 
 022E			      C enter_key_true:
 022E  F9		      C     stc
 022F  C3		      C     ret
			      C 
 0230			      C keyboard_irq_handler:
			      C     ; Latch one-shot press events on make codes and ignore typematic repeats
			      C     ; until the corresponding break code arrives.
 0230  50		      C     push ax
 0231  53		      C     push bx
 0232  51		      C     push cx
 0233  52		      C     push dx
 0234  1E		      C     push ds
 0235  0E		      C     push cs
 0236  1F		      C     pop ds
			      C 
 0237  E4 60		      C     in al, 60h
 0239  3C E0		      C     cmp al, 0E0h
 023B  0F 84 00CE	      C     je keyboard_mark_extended
 023F  3C E1		      C     cmp al, 0E1h
 0241  0F 84 00D0	      C     je keyboard_ignore
			      C 
 0245  8A D0		      C     mov dl, al
 0247  80 E2 80		      C     and dl, 80h
 024A  24 7F		      C     and al, 7Fh
 024C  2E: 8A 1E 13A8 R	      C     mov bl, [key_extended]
 0251  2E: C6 06 13A8 R	      C     mov byte ptr [key_extended], 0
       00
 0257  0A C3		      C     or al, bl
 0259  33 DB		      C     xor bx, bx
 025B  8A D8		      C     mov bl, al
 025D  F6 C2 80		      C     test dl, 80h
 0260  0F 85 00A1	      C     jnz keyboard_release
			      C 
 0264  2E: 80 BF 13B9 R	      C     cmp byte ptr [key_down + bx], 0
       00
 026A  0F 85 00AD	      C     jne keyboard_done
 026E  2E: C6 87 13B9 R	      C     mov byte ptr [key_down + bx], 1
       01
 0274  2E: C6 06 13A9 R	      C     mov byte ptr [any_key_pending], 1
       01
 027A  2E: A2 13AB R	      C     mov [input_last_code], al
 027E  3C 1C		      C     cmp al, SCAN_ENTER
 0280  74 26		      C     je keyboard_press_enter
 0282  3C 11		      C     cmp al, SCAN_W
 0284  74 2A		      C     je keyboard_press_w
 0286  3C 1E		      C     cmp al, SCAN_A
 0288  74 2E		      C     je keyboard_press_a
 028A  3C 1F		      C     cmp al, SCAN_S
 028C  74 32		      C     je keyboard_press_s
 028E  3C 20		      C     cmp al, SCAN_D
 0290  74 36		      C     je keyboard_press_d
 0292  3C 2E		      C     cmp al, SCAN_C
 0294  74 3A		      C     je keyboard_press_c
 0296  3C C8		      C     cmp al, SCAN_UP_EXT
 0298  74 3E		      C     je keyboard_press_up
 029A  3C CB		      C     cmp al, SCAN_LEFT_EXT
 029C  74 42		      C     je keyboard_press_left
 029E  3C CD		      C     cmp al, SCAN_RIGHT_EXT
 02A0  74 46		      C     je keyboard_press_right
 02A2  3C D0		      C     cmp al, SCAN_DOWN_EXT
 02A4  74 4A		      C     je keyboard_press_down
 02A6  EB 4E		      C     jmp keyboard_count_event
			      C 
 02A8			      C keyboard_press_enter:
 02A8  2E: C6 06 13AF R	      C     mov byte ptr [pressed_enter], 1
       01
 02AE  EB 46		      C     jmp keyboard_count_event
			      C 
 02B0			      C keyboard_press_w:
 02B0  2E: C6 06 13B0 R	      C     mov byte ptr [pressed_w], 1
       01
 02B6  EB 3E		      C     jmp keyboard_count_event
			      C 
 02B8			      C keyboard_press_a:
 02B8  2E: C6 06 13B1 R	      C     mov byte ptr [pressed_a], 1
       01
 02BE  EB 36		      C     jmp keyboard_count_event
			      C 
 02C0			      C keyboard_press_s:
 02C0  2E: C6 06 13B2 R	      C     mov byte ptr [pressed_s], 1
       01
 02C6  EB 2E		      C     jmp keyboard_count_event
			      C 
 02C8			      C keyboard_press_d:
 02C8  2E: C6 06 13B3 R	      C     mov byte ptr [pressed_d], 1
       01
 02CE  EB 26		      C     jmp keyboard_count_event
			      C 
 02D0			      C keyboard_press_c:
 02D0  2E: C6 06 13B4 R	      C     mov byte ptr [pressed_c], 1
       01
 02D6  EB 1E		      C     jmp keyboard_count_event
			      C 
 02D8			      C keyboard_press_up:
 02D8  2E: C6 06 13B5 R	      C     mov byte ptr [pressed_up], 1
       01
 02DE  EB 16		      C     jmp keyboard_count_event
			      C 
 02E0			      C keyboard_press_left:
 02E0  2E: C6 06 13B6 R	      C     mov byte ptr [pressed_left], 1
       01
 02E6  EB 0E		      C     jmp keyboard_count_event
			      C 
 02E8			      C keyboard_press_right:
 02E8  2E: C6 06 13B7 R	      C     mov byte ptr [pressed_right], 1
       01
 02EE  EB 06		      C     jmp keyboard_count_event
			      C 
 02F0			      C keyboard_press_down:
 02F0  2E: C6 06 13B8 R	      C     mov byte ptr [pressed_down], 1
       01
			      C 
 02F6			      C keyboard_count_event:
 02F6  2E: 80 3E 13AA R	      C     cmp byte ptr [input_event_count], 99
       63
 02FC  73 1D		      C     jae keyboard_done
 02FE  2E: FE 06 13AA R	      C     inc byte ptr [input_event_count]
 0303  EB 16		      C     jmp keyboard_done
			      C 
 0305			      C keyboard_release:
 0305  2E: C6 87 13B9 R	      C     mov byte ptr [key_down + bx], 0
       00
 030B  EB 0E		      C     jmp keyboard_done
			      C 
 030D			      C keyboard_mark_extended:
 030D  2E: C6 06 13A8 R	      C     mov byte ptr [key_extended], SCAN_EXT_FLAG
       80
 0313  EB 06		      C     jmp keyboard_done
			      C 
 0315			      C keyboard_ignore:
 0315  2E: C6 06 13A8 R	      C     mov byte ptr [key_extended], 0
       00
			      C 
 031B			      C keyboard_done:
 031B  E4 61		      C     in al, 61h
 031D  8A E0		      C     mov ah, al
 031F  0C 80		      C     or al, 80h
 0321  E6 61		      C     out 61h, al
 0323  8A C4		      C     mov al, ah
 0325  E6 61		      C     out 61h, al
 0327  B0 20		      C     mov al, 20h
 0329  E6 20		      C     out 20h, al
 032B  1F		      C     pop ds
 032C  5A		      C     pop dx
 032D  59		      C     pop cx
 032E  5B		      C     pop bx
 032F  58		      C     pop ax
 0330  CF		      C     iret
			      C 
				include game\main.asm
 0331			      C start:
			      C     ; Stage two stays in a single tiny-model segment: code, data, and the IRQ1
			      C     ; handler all expect DS = CS. SS:SP still points at the boot stack.
 0331  0E		      C     push cs
 0332  1F		      C     pop ds
			      C 
 0333  B8 0013		      C     mov ax, 0013h
 0336  CD 10		      C     int 10h
 0338  E8 06C9		      C     call init_palette
 033B  E8 FCDC		      C     call reset_keyboard_state
 033E  E8 FCC2		      C     call install_keyboard_handler
			      C 
 0341  32 E4		      C     xor ah, ah
 0343  CD 1A		      C     int 1Ah
 0345  2E: 89 16 13A2 R	      C     mov [rng_state], dx
 034A  83 FA 00		      C     cmp dx, 0
 034D  75 07		      C     jne seed_ready
 034F  2E: C7 06 13A2 R	      C     mov word ptr [rng_state], 0ACE1h
       ACE1
			      C 
 0356			      C seed_ready:
 0356  32 E4		      C     xor ah, ah
 0358  CD 1A		      C     int 1Ah
 035A  2E: 89 16 13A4 R	      C     mov [last_tick], dx
 035F  2E: C6 06 13A6 R	      C     mov byte ptr [anim_phase], 0
       00
 0365  2E: C6 06 13A7 R	      C     mov byte ptr [splash_ticks], 0
       00
 036B  2E: C6 06 1396 R	      C     mov byte ptr [game_state], STATE_SPLASH
       04
 0371  2E: C6 06 139C R	      C     mov byte ptr [message_id], MSG_SECTOR
       00
			      C 
 0377			      C main_loop:
			      C     ; One BIOS timer tick drives animation, rendering, and then one round of
			      C     ; state/input handling.
 0377  E8 005D		      C     call wait_frame_tick
 037A  E8 0070		      C     call update_frontend_state
 037D  E8 08FF		      C     call render_screen
 0380  2E: 80 3E 1396 R	      C     cmp byte ptr [game_state], STATE_PLAYING
       01
 0386  74 4A		      C     je handle_play_input
			      C 
 0388  2E: 80 3E 1396 R	      C     cmp byte ptr [game_state], STATE_SPLASH
       04
 038E  74 13		      C     je handle_splash_input
			      C 
 0390  2E: 80 3E 13A9 R	      C     cmp byte ptr [any_key_pending], 0
       00
 0396  74 DF		      C     je main_loop
 0398  2E: C6 06 13A9 R	      C     mov byte ptr [any_key_pending], 0
       00
 039E  E8 0068		      C     call start_new_run
 03A1  EB D4		      C     jmp main_loop
			      C 
 03A3			      C handle_splash_input:
 03A3  2E: 80 3E 13AF R	      C     cmp byte ptr [pressed_enter], 0
       00
 03A9  74 11		      C     je splash_check_skip
 03AB  2E: C6 06 13AF R	      C     mov byte ptr [pressed_enter], 0
       00
 03B1  2E: C6 06 13A9 R	      C     mov byte ptr [any_key_pending], 0
       00
 03B7  E8 004F		      C     call start_new_run
 03BA  EB BB		      C     jmp main_loop
			      C 
 03BC			      C splash_check_skip:
 03BC  2E: 80 3E 13A9 R	      C     cmp byte ptr [any_key_pending], 0
       00
 03C2  74 B3		      C     je main_loop
 03C4  2E: C6 06 13A9 R	      C     mov byte ptr [any_key_pending], 0
       00
			      C 
 03CA			      C skip_splash:
 03CA  2E: C6 06 1396 R	      C     mov byte ptr [game_state], STATE_TITLE
       00
 03D0  EB A5		      C     jmp main_loop
			      C 
 03D2			      C handle_play_input:
 03D2  E8 0062		      C     call process_play_input
 03D5  EB A0		      C     jmp main_loop
			      C 
 03D7			      C wait_frame_tick:
 03D7			      C wait_frame_tick_loop:
			      C     ; BIOS tick count (~18.2 Hz) is the only global clock in the runtime.
 03D7  32 E4		      C     xor ah, ah
 03D9  CD 1A		      C     int 1Ah
 03DB  2E: 3B 16 13A4 R	      C     cmp dx, [last_tick]
 03E0  74 F5		      C     je wait_frame_tick_loop
 03E2  2E: 89 16 13A4 R	      C     mov [last_tick], dx
 03E7  2E: FE 06 13A6 R	      C     inc byte ptr [anim_phase]
 03EC  C3		      C     ret
			      C 
 03ED			      C update_frontend_state:
 03ED  2E: 80 3E 1396 R	      C     cmp byte ptr [game_state], STATE_SPLASH
       04
 03F3  75 13		      C     jne frontend_state_done
 03F5  2E: FE 06 13A7 R	      C     inc byte ptr [splash_ticks]
 03FA  2E: 80 3E 13A7 R	      C     cmp byte ptr [splash_ticks], SPLASH_DURATION
       36
 0400  72 06		      C     jb frontend_state_done
 0402  2E: C6 06 1396 R	      C     mov byte ptr [game_state], STATE_TITLE
       00
			      C 
 0408			      C frontend_state_done:
 0408  C3		      C     ret
			      C 
 0409			      C start_new_run:
 0409  2E: C6 06 1396 R	      C     mov byte ptr [game_state], STATE_PLAYING
       01
 040F  2E: C6 06 1397 R	      C     mov byte ptr [sector_num], 1
       01
 0415  2E: C6 06 1398 R	      C     mov byte ptr [shield_count], START_SHIELDS
       05
 041B  2E: C6 06 1399 R	      C     mov byte ptr [pulse_count], START_PULSES
       03
 0421  2E: C6 06 139A R	      C     mov byte ptr [data_count], 0
       00
 0427  2E: C6 06 139B R	      C     mov byte ptr [kill_count], 0
       00
 042D  E8 031F		      C     call load_sector
 0430  2E: C6 06 139C R	      C     mov byte ptr [message_id], MSG_SECTOR
       00
 0436  C3		      C     ret
			      C 
				include game\gameplay.asm
 0437			      C process_play_input:
			      C     ; Only consumed actions set action_taken; that flag is what grants hunters
			      C     ; exactly one responding turn.
 0437  2E: C6 06 139D R	      C     mov byte ptr [action_taken], 0
       00
			      C 
 043D  2E: 80 3E 13AF R	      C     cmp byte ptr [pressed_enter], 0
       00
 0443  74 10		      C     je check_pulse_lower
 0445  2E: C6 06 13AF R	      C     mov byte ptr [pressed_enter], 0
       00
 044B  2E: C6 06 13A9 R	      C     mov byte ptr [any_key_pending], 0
       00
 0451  E8 FFB5		      C     call start_new_run
 0454  C3		      C     ret
			      C 
 0455			      C check_pulse_lower:
 0455  2E: 80 3E 13B4 R	      C     cmp byte ptr [pressed_c], 0
       00
 045B  75 41		      C     jne consume_pulse
			      C 
 045D  2E: 80 3E 13B1 R	      C     cmp byte ptr [pressed_a], 0
       00
 0463  75 48		      C     jne consume_left
 0465  2E: 80 3E 13B6 R	      C     cmp byte ptr [pressed_left], 0
       00
 046B  75 40		      C     jne consume_left
			      C 
 046D  2E: 80 3E 13B3 R	      C     cmp byte ptr [pressed_d], 0
       00
 0473  75 4C		      C     jne consume_right
 0475  2E: 80 3E 13B7 R	      C     cmp byte ptr [pressed_right], 0
       00
 047B  75 44		      C     jne consume_right
			      C 
 047D  2E: 80 3E 13B0 R	      C     cmp byte ptr [pressed_w], 0
       00
 0483  75 50		      C     jne consume_up
 0485  2E: 80 3E 13B5 R	      C     cmp byte ptr [pressed_up], 0
       00
 048B  75 48		      C     jne consume_up
			      C 
 048D  2E: 80 3E 13B2 R	      C     cmp byte ptr [pressed_s], 0
       00
 0493  75 54		      C     jne consume_down
 0495  2E: 80 3E 13B8 R	      C     cmp byte ptr [pressed_down], 0
       00
 049B  75 4C		      C     jne consume_down
			      C 
 049D  C3		      C     ret
			      C 
 049E			      C consume_pulse:
 049E  2E: C6 06 13B4 R	      C     mov byte ptr [pressed_c], 0
       00
 04A4  2E: C6 06 13A9 R	      C     mov byte ptr [any_key_pending], 0
       00
 04AA  E9 00AF		      C     jmp do_pulse
			      C 
 04AD			      C consume_left:
 04AD  2E: C6 06 13B1 R	      C     mov byte ptr [pressed_a], 0
       00
 04B3  2E: C6 06 13B6 R	      C     mov byte ptr [pressed_left], 0
       00
 04B9  2E: C6 06 13A9 R	      C     mov byte ptr [any_key_pending], 0
       00
 04BF  EB 3C		      C     jmp move_left
			      C 
 04C1			      C consume_right:
 04C1  2E: C6 06 13B3 R	      C     mov byte ptr [pressed_d], 0
       00
 04C7  2E: C6 06 13B7 R	      C     mov byte ptr [pressed_right], 0
       00
 04CD  2E: C6 06 13A9 R	      C     mov byte ptr [any_key_pending], 0
       00
 04D3  EB 3E		      C     jmp move_right
			      C 
 04D5			      C consume_up:
 04D5  2E: C6 06 13B0 R	      C     mov byte ptr [pressed_w], 0
       00
 04DB  2E: C6 06 13B5 R	      C     mov byte ptr [pressed_up], 0
       00
 04E1  2E: C6 06 13A9 R	      C     mov byte ptr [any_key_pending], 0
       00
 04E7  EB 40		      C     jmp move_up
			      C 
 04E9			      C consume_down:
 04E9  2E: C6 06 13B2 R	      C     mov byte ptr [pressed_s], 0
       00
 04EF  2E: C6 06 13B8 R	      C     mov byte ptr [pressed_down], 0
       00
 04F5  2E: C6 06 13A9 R	      C     mov byte ptr [any_key_pending], 0
       00
 04FB  EB 42		      C     jmp move_down
			      C 
 04FD			      C move_left:
 04FD  2E: 8A 1E 139E R	      C     mov bl, [player_x]
 0502  80 FB 01		      C     cmp bl, PLAY_MIN_X
 0505  76 4E		      C     jbe blocked_move
 0507  FE CB		      C     dec bl
 0509  2E: 8A 3E 139F R	      C     mov bh, [player_y]
 050E  E8 0062		      C     call attempt_move_to
 0511  EB 4C		      C     jmp maybe_enemy_turn
			      C 
 0513			      C move_right:
 0513  2E: 8A 1E 139E R	      C     mov bl, [player_x]
 0518  80 FB 1A		      C     cmp bl, PLAY_MAX_X
 051B  73 38		      C     jae blocked_move
 051D  FE C3		      C     inc bl
 051F  2E: 8A 3E 139F R	      C     mov bh, [player_y]
 0524  E8 004C		      C     call attempt_move_to
 0527  EB 36		      C     jmp maybe_enemy_turn
			      C 
 0529			      C move_up:
 0529  2E: 8A 1E 139E R	      C     mov bl, [player_x]
 052E  2E: 8A 3E 139F R	      C     mov bh, [player_y]
 0533  80 FF 01		      C     cmp bh, PLAY_MIN_Y
 0536  76 1D		      C     jbe blocked_move
 0538  FE CF		      C     dec bh
 053A  E8 0036		      C     call attempt_move_to
 053D  EB 20		      C     jmp maybe_enemy_turn
			      C 
 053F			      C move_down:
 053F  2E: 8A 1E 139E R	      C     mov bl, [player_x]
 0544  2E: 8A 3E 139F R	      C     mov bh, [player_y]
 0549  80 FF 0D		      C     cmp bh, PLAY_MAX_Y
 054C  73 07		      C     jae blocked_move
 054E  FE C7		      C     inc bh
 0550  E8 0020		      C     call attempt_move_to
 0553  EB 0A		      C     jmp maybe_enemy_turn
			      C 
 0555			      C blocked_move:
 0555  2E: C6 06 139C R	      C     mov byte ptr [message_id], MSG_BLOCK
       01
 055B  C3		      C     ret
			      C 
 055C			      C do_pulse:
 055C  E8 00B8		      C     call use_pulse
			      C 
 055F			      C maybe_enemy_turn:
 055F  2E: 80 3E 1396 R	      C     cmp byte ptr [game_state], STATE_PLAYING
       01
 0565  75 0B		      C     jne input_done
 0567  2E: 80 3E 139D R	      C     cmp byte ptr [action_taken], 0
       00
 056D  74 03		      C     je input_done
 056F  E8 011A		      C     call enemy_turn
			      C 
 0572			      C input_done:
 0572  C3		      C     ret
			      C 
 0573			      C attempt_move_to:
 0573  53		      C     push bx
 0574  BF FFFF		      C     mov di, 0FFFFh
 0577  E8 031B		      C     call find_enemy_at
 057A  72 2C		      C     jc stepped_into_enemy
 057C  5B		      C     pop bx
			      C 
 057D  E8 0341		      C     call get_tile
 0580  3C 01		      C     cmp al, TILE_WALL
 0582  74 1D		      C     je move_blocked
 0584  3C 03		      C     cmp al, TILE_EXIT_LOCKED
 0586  74 19		      C     je move_blocked
 0588  3C 02		      C     cmp al, TILE_SHARD
 058A  74 3A		      C     je move_collect_shard
 058C  3C 04		      C     cmp al, TILE_EXIT_OPEN
 058E  74 69		      C     je move_use_exit
			      C 
 0590			      C move_floor:
 0590  2E: 88 1E 139E R	      C     mov [player_x], bl
 0595  2E: 88 3E 139F R	      C     mov [player_y], bh
 059A  2E: C6 06 139D R	      C     mov byte ptr [action_taken], 1
       01
 05A0  C3		      C     ret
			      C 
 05A1			      C move_blocked:
 05A1  2E: C6 06 139C R	      C     mov byte ptr [message_id], MSG_BLOCK
       01
 05A7  C3		      C     ret
			      C 
 05A8			      C stepped_into_enemy:
 05A8  5B		      C     pop bx
 05A9  C6 04 00		      C     mov byte ptr [si + ENEMY_ALIVE], 0
 05AC  E8 02D8		      C     call award_kill
 05AF  2E: 88 1E 139E R	      C     mov [player_x], bl
 05B4  2E: 88 3E 139F R	      C     mov [player_y], bh
 05B9  2E: C6 06 139C R	      C     mov byte ptr [message_id], MSG_KILL
       05
 05BF  2E: C6 06 139D R	      C     mov byte ptr [action_taken], 1
       01
 05C5  C3		      C     ret
			      C 
 05C6			      C move_collect_shard:
 05C6  B2 00		      C     mov dl, TILE_FLOOR
 05C8  E8 0301		      C     call set_tile
 05CB  2E: 88 1E 139E R	      C     mov [player_x], bl
 05D0  2E: 88 3E 139F R	      C     mov [player_y], bh
 05D5  2E: FE 06 139A R	      C     inc byte ptr [data_count]
 05DA  2E: C6 06 139D R	      C     mov byte ptr [action_taken], 1
       01
 05E0  2E: A0 139A R	      C     mov al, [data_count]
 05E4  3C 04		      C     cmp al, SHARD_COUNT
 05E6  72 0A		      C     jb shard_message
 05E8  E8 01ED		      C     call open_exit
 05EB  2E: C6 06 139C R	      C     mov byte ptr [message_id], MSG_GATE
       03
 05F1  C3		      C     ret
			      C 
 05F2			      C shard_message:
 05F2  2E: C6 06 139C R	      C     mov byte ptr [message_id], MSG_SHARD
       02
 05F8  C3		      C     ret
			      C 
 05F9			      C move_use_exit:
 05F9  2E: FE 06 1397 R	      C     inc byte ptr [sector_num]
 05FE  2E: A0 1397 R	      C     mov al, [sector_num]
 0602  3C 03		      C     cmp al, TOTAL_SECTORS
 0604  76 07		      C     jbe advance_sector
 0606  2E: C6 06 1396 R	      C     mov byte ptr [game_state], STATE_WIN
       02
 060C  C3		      C     ret
			      C 
 060D			      C advance_sector:
 060D  E8 013F		      C     call load_sector
 0610  2E: C6 06 139C R	      C     mov byte ptr [message_id], MSG_SECTOR
       00
 0616  C3		      C     ret
			      C 
 0617			      C use_pulse:
 0617  2E: 80 3E 1399 R	      C     cmp byte ptr [pulse_count], 0
       00
 061D  75 07		      C     jne pulse_live
 061F  2E: C6 06 139C R	      C     mov byte ptr [message_id], MSG_NOPULSE
       07
 0625  C3		      C     ret
			      C 
 0626			      C pulse_live:
 0626  2E: FE 0E 1399 R	      C     dec byte ptr [pulse_count]
 062B  2E: C6 06 139C R	      C     mov byte ptr [message_id], MSG_PULSE
       06
 0631  2E: C6 06 139D R	      C     mov byte ptr [action_taken], 1
       01
 0637  BE 15C7 R	      C     mov si, offset enemies
 063A  B9 000A		      C     mov cx, MAX_ENEMIES
			      C 
 063D			      C pulse_loop:
 063D  80 3C 00		      C     cmp byte ptr [si + ENEMY_ALIVE], 0
 0640  74 44		      C     je pulse_next
			      C 
 0642  8A 44 01		      C     mov al, [si + ENEMY_X]
 0645  2E: 8A 1E 139E R	      C     mov bl, [player_x]
 064A  3A C3		      C     cmp al, bl
 064C  74 13		      C     je pulse_x_ok
 064E  72 08		      C     jb pulse_x_left
 0650  2A C3		      C     sub al, bl
 0652  3C 01		      C     cmp al, 1
 0654  77 30		      C     ja pulse_next
 0656  EB 09		      C     jmp pulse_x_ok
			      C 
 0658			      C pulse_x_left:
 0658  8A D3		      C     mov dl, bl
 065A  2A D0		      C     sub dl, al
 065C  80 FA 01		      C     cmp dl, 1
 065F  77 25		      C     ja pulse_next
			      C 
 0661			      C pulse_x_ok:
 0661  8A 44 02		      C     mov al, [si + ENEMY_Y]
 0664  2E: 8A 1E 139F R	      C     mov bl, [player_y]
 0669  3A C3		      C     cmp al, bl
 066B  74 13		      C     je pulse_hit
 066D  72 08		      C     jb pulse_y_up
 066F  2A C3		      C     sub al, bl
 0671  3C 01		      C     cmp al, 1
 0673  77 11		      C     ja pulse_next
 0675  EB 09		      C     jmp pulse_hit
			      C 
 0677			      C pulse_y_up:
 0677  8A D3		      C     mov dl, bl
 0679  2A D0		      C     sub dl, al
 067B  80 FA 01		      C     cmp dl, 1
 067E  77 06		      C     ja pulse_next
			      C 
 0680			      C pulse_hit:
 0680  C6 04 00		      C     mov byte ptr [si + ENEMY_ALIVE], 0
 0683  E8 0201		      C     call award_kill
			      C 
 0686			      C pulse_next:
 0686  83 C6 03		      C     add si, ENEMY_SIZE
 0689  E2 B2		      C     loop pulse_loop
 068B  C3		      C     ret
			      C 
 068C			      C enemy_turn:
 068C  BE 15C7 R	      C     mov si, offset enemies
 068F  B9 000A		      C     mov cx, MAX_ENEMIES
			      C 
 0692			      C enemy_turn_loop:
 0692  80 3C 00		      C     cmp byte ptr [si + ENEMY_ALIVE], 0
 0695  74 0D		      C     je enemy_turn_next
 0697  51		      C     push cx
 0698  E8 000F		      C     call move_enemy
 069B  59		      C     pop cx
 069C  2E: 80 3E 1396 R	      C     cmp byte ptr [game_state], STATE_PLAYING
       01
 06A2  75 05		      C     jne enemy_turn_done
			      C 
 06A4			      C enemy_turn_next:
 06A4  83 C6 03		      C     add si, ENEMY_SIZE
 06A7  E2 E9		      C     loop enemy_turn_loop
			      C 
 06A9			      C enemy_turn_done:
 06A9  C3		      C     ret
			      C 
 06AA			      C move_enemy:
 06AA  8A 44 01		      C     mov al, [si + ENEMY_X]
 06AD  8A 64 02		      C     mov ah, [si + ENEMY_Y]
			      C 
 06B0  2E: 8A 1E 139E R	      C     mov bl, [player_x]
 06B5  3A C3		      C     cmp al, bl
 06B7  74 1A		      C     je enemy_try_vertical
 06B9  72 0D		      C     jb enemy_try_right
			      C 
 06BB			      C enemy_try_left:
 06BB  8A D0		      C     mov dl, al
 06BD  FE CA		      C     dec dl
 06BF  8A F4		      C     mov dh, ah
 06C1  E8 0033		      C     call try_enemy_step
 06C4  72 30		      C     jc enemy_done
 06C6  EB 0B		      C     jmp enemy_try_vertical
			      C 
 06C8			      C enemy_try_right:
 06C8  8A D0		      C     mov dl, al
 06CA  FE C2		      C     inc dl
 06CC  8A F4		      C     mov dh, ah
 06CE  E8 0026		      C     call try_enemy_step
 06D1  72 23		      C     jc enemy_done
			      C 
 06D3			      C enemy_try_vertical:
 06D3  2E: 8A 1E 139F R	      C     mov bl, [player_y]
 06D8  3A E3		      C     cmp ah, bl
 06DA  74 1A		      C     je enemy_done
 06DC  72 0D		      C     jb enemy_try_down
			      C 
 06DE			      C enemy_try_up:
 06DE  8A 54 01		      C     mov dl, [si + ENEMY_X]
 06E1  8A 74 02		      C     mov dh, [si + ENEMY_Y]
 06E4  FE CE		      C     dec dh
 06E6  E8 000E		      C     call try_enemy_step
 06E9  EB 0B		      C     jmp enemy_done
			      C 
 06EB			      C enemy_try_down:
 06EB  8A 54 01		      C     mov dl, [si + ENEMY_X]
 06EE  8A 74 02		      C     mov dh, [si + ENEMY_Y]
 06F1  FE C6		      C     inc dh
 06F3  E8 0001		      C     call try_enemy_step
			      C 
 06F6			      C enemy_done:
 06F6  C3		      C     ret
			      C 
 06F7			      C try_enemy_step:
 06F7  2E: 8A 1E 139E R	      C     mov bl, [player_x]
 06FC  3A D3		      C     cmp dl, bl
 06FE  75 27		      C     jne step_not_player
 0700  2E: 8A 1E 139F R	      C     mov bl, [player_y]
 0705  3A F3		      C     cmp dh, bl
 0707  75 1E		      C     jne step_not_player
 0709  2E: FE 0E 1398 R	      C     dec byte ptr [shield_count]
 070E  C6 04 00		      C     mov byte ptr [si + ENEMY_ALIVE], 0
 0711  2E: C6 06 139C R	      C     mov byte ptr [message_id], MSG_HIT
       04
 0717  2E: 80 3E 1398 R	      C     cmp byte ptr [shield_count], 0
       00
 071D  75 06		      C     jne step_success
 071F  2E: C6 06 1396 R	      C     mov byte ptr [game_state], STATE_LOSE
       03
 0725			      C step_success:
 0725  F9		      C     stc
 0726  C3		      C     ret
			      C 
 0727			      C step_not_player:
 0727  8A DA		      C     mov bl, dl
 0729  8A FE		      C     mov bh, dh
 072B  E8 0193		      C     call get_tile
 072E  3C 01		      C     cmp al, TILE_WALL
 0730  74 1B		      C     je step_fail
 0732  3C 03		      C     cmp al, TILE_EXIT_LOCKED
 0734  74 17		      C     je step_fail
 0736  3C 04		      C     cmp al, TILE_EXIT_OPEN
 0738  74 13		      C     je step_fail
			      C 
 073A  8A DA		      C     mov bl, dl
 073C  8A FE		      C     mov bh, dh
 073E  8B FE		      C     mov di, si
 0740  E8 0152		      C     call find_enemy_at
 0743  72 08		      C     jc step_fail
			      C 
 0745  88 54 01		      C     mov [si + ENEMY_X], dl
 0748  88 74 02		      C     mov [si + ENEMY_Y], dh
 074B  F9		      C     stc
 074C  C3		      C     ret
			      C 
 074D			      C step_fail:
 074D  F8		      C     clc
 074E  C3		      C     ret
			      C 
 074F			      C load_sector:
 074F  2E: 80 3E 1397 R	      C     cmp byte ptr [sector_num], 1
       01
 0755  74 0D		      C     je keep_pulse_count
 0757  2E: 80 3E 1399 R	      C     cmp byte ptr [pulse_count], MAX_PULSES
       05
 075D  73 05		      C     jae keep_pulse_count
 075F  2E: FE 06 1399 R	      C     inc byte ptr [pulse_count]
			      C 
 0764			      C keep_pulse_count:
 0764  2E: C6 06 139A R	      C     mov byte ptr [data_count], 0
       00
 076A  2E: C6 06 139D R	      C     mov byte ptr [action_taken], 0
       00
 0770  E8 0025		      C     call clear_enemy_table
 0773  E8 0030		      C     call copy_sector_layout
 0776  2E: C6 06 139E R	      C     mov byte ptr [player_x], START_X
       02
 077C  2E: C6 06 139F R	      C     mov byte ptr [player_y], START_Y
       0D
 0782  2E: C6 06 13A0 R	      C     mov byte ptr [exit_x], EXIT_COL
       19
 0788  2E: C6 06 13A1 R	      C     mov byte ptr [exit_y], EXIT_ROW
       01
 078E  E8 003D		      C     call set_exit_locked
 0791  E8 0054		      C     call place_shards
 0794  E8 005F		      C     call place_enemies
 0797  C3		      C     ret
			      C 
 0798			      C clear_enemy_table:
 0798  BF 15C7 R	      C     mov di, offset enemies
 079B  B9 001E		      C     mov cx, MAX_ENEMIES * ENEMY_SIZE
 079E  33 C0		      C     xor ax, ax
			      C 
 07A0			      C clear_enemy_loop:
 07A0  88 05		      C     mov [di], al
 07A2  47		      C     inc di
 07A3  E2 FB		      C     loop clear_enemy_loop
 07A5  C3		      C     ret
			      C 
 07A6			      C copy_sector_layout:
			      C     ; Sector templates are MAP_H rows of MAP_W ASCII bytes. Only '#'
			      C     ; survives as a wall; everything else is normalized to floor here.
 07A6  2E: A0 1397 R	      C     mov al, [sector_num]
 07AA  FE C8		      C     dec al
 07AC  32 E4		      C     xor ah, ah
 07AE  D1 E0		      C     shl ax, 1
 07B0  8B D8		      C     mov bx, ax
 07B2  2E: 8B B7 17B7 R	      C     mov si, word ptr [template_table + bx]
 07B7  BF 15E5 R	      C     mov di, offset map_tiles
 07BA  B9 01A4		      C     mov cx, MAP_SIZE
			      C 
 07BD			      C copy_layout_loop:
 07BD  AC		      C     lodsb
 07BE  3C 23		      C     cmp al, '#'
 07C0  74 04		      C     je copy_wall
 07C2  B0 00		      C     mov al, TILE_FLOOR
 07C4  EB 02		      C     jmp copy_store
			      C 
 07C6			      C copy_wall:
 07C6  B0 01		      C     mov al, TILE_WALL
			      C 
 07C8			      C copy_store:
 07C8  88 05		      C     mov [di], al
 07CA  47		      C     inc di
 07CB  E2 F0		      C     loop copy_layout_loop
 07CD  C3		      C     ret
			      C 
 07CE			      C set_exit_locked:
 07CE  B3 19		      C     mov bl, EXIT_COL
 07D0  B7 01		      C     mov bh, EXIT_ROW
 07D2  B2 03		      C     mov dl, TILE_EXIT_LOCKED
 07D4  E8 00F5		      C     call set_tile
 07D7  C3		      C     ret
			      C 
 07D8			      C open_exit:
 07D8  2E: 8A 1E 13A0 R	      C     mov bl, [exit_x]
 07DD  2E: 8A 3E 13A1 R	      C     mov bh, [exit_y]
 07E2  B2 04		      C     mov dl, TILE_EXIT_OPEN
 07E4  E8 00E5		      C     call set_tile
 07E7  C3		      C     ret
			      C 
 07E8			      C place_shards:
 07E8  B9 0004		      C     mov cx, SHARD_COUNT
			      C 
 07EB			      C place_shard_loop:
 07EB  E8 0035		      C     call random_floor_position
 07EE  B2 02		      C     mov dl, TILE_SHARD
 07F0  E8 00D9		      C     call set_tile
 07F3  E2 F6		      C     loop place_shard_loop
 07F5  C3		      C     ret
			      C 
 07F6			      C place_enemies:
 07F6  2E: A0 1397 R	      C     mov al, [sector_num]
 07FA  B3 02		      C     mov bl, ENEMY_SPAWN_STEP
 07FC  F6 E3		      C     mul bl
 07FE  04 03		      C     add al, ENEMY_SPAWN_BASE
 0800  8A C8		      C     mov cl, al
 0802  BE 15C7 R	      C     mov si, offset enemies
			      C 
 0805			      C place_enemy_find_slot:
 0805  80 3C 00		      C     cmp byte ptr [si + ENEMY_ALIVE], 0
 0808  74 05		      C     je place_enemy_here
 080A  83 C6 03		      C     add si, ENEMY_SIZE
 080D  EB F6		      C     jmp place_enemy_find_slot
			      C 
 080F			      C place_enemy_here:
 080F  E8 0037		      C     call random_enemy_position
 0812  C6 04 01		      C     mov byte ptr [si + ENEMY_ALIVE], 1
 0815  88 5C 01		      C     mov [si + ENEMY_X], bl
 0818  88 7C 02		      C     mov [si + ENEMY_Y], bh
 081B  83 C6 03		      C     add si, ENEMY_SIZE
 081E  FE C9		      C     dec cl
 0820  75 E3		      C     jnz place_enemy_find_slot
 0822  C3		      C     ret
			      C 
 0823			      C random_floor_position:
 0823			      C rand_floor_retry:
 0823  E8 0039		      C     call random_x
 0826  8A D8		      C     mov bl, al
 0828  E8 0040		      C     call random_y
 082B  8A F8		      C     mov bh, al
 082D  80 FB 02		      C     cmp bl, START_X
 0830  75 05		      C     jne rand_floor_not_start
 0832  80 FF 0D		      C     cmp bh, START_Y
 0835  74 EC		      C     je rand_floor_retry
			      C 
 0837			      C rand_floor_not_start:
 0837  80 FB 19		      C     cmp bl, EXIT_COL
 083A  75 05		      C     jne rand_floor_tile
 083C  80 FF 01		      C     cmp bh, EXIT_ROW
 083F  74 E2		      C     je rand_floor_retry
			      C 
 0841			      C rand_floor_tile:
 0841  E8 007D		      C     call get_tile
 0844  3C 00		      C     cmp al, TILE_FLOOR
 0846  75 DB		      C     jne rand_floor_retry
 0848  C3		      C     ret
			      C 
 0849			      C random_enemy_position:
 0849			      C rand_enemy_retry:
 0849  E8 FFD7		      C     call random_floor_position
 084C  80 FB 06		      C     cmp bl, SAFE_X_MAX
 084F  77 05		      C     ja rand_enemy_space_ok
 0851  80 FF 0A		      C     cmp bh, SAFE_Y_MIN
 0854  73 F3		      C     jae rand_enemy_retry
			      C 
 0856			      C rand_enemy_space_ok:
 0856  BF FFFF		      C     mov di, 0FFFFh
 0859  E8 0039		      C     call find_enemy_at
 085C  72 EB		      C     jc rand_enemy_retry
 085E  C3		      C     ret
			      C 
 085F			      C random_x:
 085F  E8 0015		      C     call random_word
 0862  B3 1A		      C     mov bl, PLAY_MAX_X
 0864  F6 F3		      C     div bl
 0866  8A C4		      C     mov al, ah
 0868  FE C0		      C     inc al
 086A  C3		      C     ret
			      C 
 086B			      C random_y:
 086B  E8 0009		      C     call random_word
 086E  B3 0D		      C     mov bl, PLAY_MAX_Y
 0870  F6 F3		      C     div bl
 0872  8A C4		      C     mov al, ah
 0874  FE C0		      C     inc al
 0876  C3		      C     ret
			      C 
 0877			      C random_word:
 0877  2E: A1 13A2 R	      C     mov ax, [rng_state]
 087B  D1 E8		      C     shr ax, 1
 087D  73 03		      C     jnc random_store
 087F  35 B400		      C     xor ax, 0B400h
			      C 
 0882			      C random_store:
 0882  2E: A3 13A2 R	      C     mov [rng_state], ax
 0886  C3		      C     ret
			      C 
 0887			      C award_kill:
 0887  2E: 80 3E 139B R	      C     cmp byte ptr [kill_count], 99
       63
 088D  73 05		      C     jae award_done
 088F  2E: FE 06 139B R	      C     inc byte ptr [kill_count]
 0894			      C award_done:
 0894  C3		      C     ret
			      C 
 0895			      C find_enemy_at:
 0895  50		      C     push ax
 0896  51		      C     push cx
 0897  BE 15C7 R	      C     mov si, offset enemies
 089A  B9 000A		      C     mov cx, MAX_ENEMIES
			      C 
 089D			      C find_enemy_loop:
 089D  80 3C 00		      C     cmp byte ptr [si + ENEMY_ALIVE], 0
 08A0  74 16		      C     je find_enemy_next
 08A2  3B F7		      C     cmp si, di
 08A4  74 12		      C     je find_enemy_next
 08A6  8A 44 01		      C     mov al, [si + ENEMY_X]
 08A9  3A C3		      C     cmp al, bl
 08AB  75 0B		      C     jne find_enemy_next
 08AD  8A 44 02		      C     mov al, [si + ENEMY_Y]
 08B0  3A C7		      C     cmp al, bh
 08B2  75 04		      C     jne find_enemy_next
 08B4  59		      C     pop cx
 08B5  58		      C     pop ax
 08B6  F9		      C     stc
 08B7  C3		      C     ret
			      C 
 08B8			      C find_enemy_next:
 08B8  83 C6 03		      C     add si, ENEMY_SIZE
 08BB  E2 E0		      C     loop find_enemy_loop
 08BD  59		      C     pop cx
 08BE  58		      C     pop ax
 08BF  F8		      C     clc
 08C0  C3		      C     ret
			      C 
 08C1			      C get_tile:
 08C1  53		      C     push bx
 08C2  E8 0012		      C     call map_index
 08C5  2E: 8A 84 15E5 R	      C     mov al, [map_tiles + si]
 08CA  5B		      C     pop bx
 08CB  C3		      C     ret
			      C 
 08CC			      C set_tile:
 08CC  53		      C     push bx
 08CD  E8 0007		      C     call map_index
 08D0  2E: 88 94 15E5 R	      C     mov [map_tiles + si], dl
 08D5  5B		      C     pop bx
 08D6  C3		      C     ret
			      C 
 08D7			      C map_index:
 08D7  33 C0		      C     xor ax, ax
 08D9  8A C7		      C     mov al, bh
 08DB  D1 E0		      C     shl ax, 1
 08DD  8B F0		      C     mov si, ax
 08DF  2E: 8B B4 1789 R	      C     mov si, [map_row_offsets + si]
 08E4  33 C0		      C     xor ax, ax
 08E6  8A C3		      C     mov al, bl
 08E8  03 F0		      C     add si, ax
 08EA  C3		      C     ret
			      C 
				include game\render\framebuffer.asm
 08EB			      C clear_backbuffer:
 08EB  50		      C     push ax
 08EC  51		      C     push cx
 08ED  57		      C     push di
 08EE  33 FF		      C     xor di, di
 08F0  B8 0101		      C     mov ax, PAL_BG0 + (PAL_BG0 shl 8)
 08F3  B9 7D00		      C     mov cx, SCREEN_WORDS
 08F6  F3/ AB		      C     rep stosw
 08F8  5F		      C     pop di
 08F9  59		      C     pop cx
 08FA  58		      C     pop ax
 08FB  C3		      C     ret
			      C 
 08FC			      C draw_starfield:
 08FC  50		      C     push ax
 08FD  53		      C     push bx
 08FE  51		      C     push cx
 08FF  52		      C     push dx
 0900  56		      C     push si
 0901  BE 1F53 R	      C     mov si, offset starfield
 0904  B9 0010		      C     mov cx, STAR_COUNT
			      C 
 0907			      C draw_star_loop:
 0907  8B 1C		      C     mov bx, [si]
 0909  8B 54 02		      C     mov dx, [si + 2]
 090C  8A 44 04		      C     mov al, byte ptr [si + 4]
 090F  2E: 8A 26 13A6 R	      C     mov ah, [anim_phase]
 0914  02 24		      C     add ah, byte ptr [si]
 0916  80 E4 03		      C     and ah, 03h
 0919  75 0A		      C     jnz star_color_ready
 091B  3C 07		      C     cmp al, PAL_WHITE
 091D  74 04		      C     je star_shift_cyan
 091F  B0 07		      C     mov al, PAL_WHITE
 0921  EB 02		      C     jmp star_color_ready
			      C 
 0923			      C star_shift_cyan:
 0923  B0 06		      C     mov al, PAL_CYAN2
			      C 
 0925			      C star_color_ready:
 0925  E8 00BC		      C     call put_pixel
 0928  83 C6 06		      C     add si, 6
 092B  E2 DA		      C     loop draw_star_loop
 092D  5E		      C     pop si
 092E  5A		      C     pop dx
 092F  59		      C     pop cx
 0930  5B		      C     pop bx
 0931  58		      C     pop ax
 0932  C3		      C     ret
			      C 
 0933			      C wait_for_vblank:
 0933  52		      C     push dx
 0934  BA 03DA		      C     mov dx, 03DAh
			      C 
 0937			      C wait_vblank_end:
 0937  EC		      C     in al, dx
 0938  A8 08		      C     test al, 08h
 093A  75 FB		      C     jnz wait_vblank_end
			      C 
 093C			      C wait_vblank_start:
 093C  EC		      C     in al, dx
 093D  A8 08		      C     test al, 08h
 093F  74 FB		      C     jz wait_vblank_start
 0941  5A		      C     pop dx
 0942  C3		      C     ret
			      C 
 0943			      C present_frame:
 0943  50		      C     push ax
 0944  51		      C     push cx
 0945  56		      C     push si
 0946  57		      C     push di
 0947  1E		      C     push ds
 0948  E8 FFE8		      C     call wait_for_vblank
 094B  B8 9000		      C     mov ax, BACKBUFFER_SEG
 094E  8E D8		      C     mov ds, ax
 0950  B8 A000		      C     mov ax, VGA_SEG
 0953  8E C0		      C     mov es, ax
 0955  33 F6		      C     xor si, si
 0957  33 FF		      C     xor di, di
 0959  B9 7D00		      C     mov cx, SCREEN_WORDS
 095C  F3/ A5		      C     rep movsw
 095E  1F		      C     pop ds
 095F  5F		      C     pop di
 0960  5E		      C     pop si
 0961  59		      C     pop cx
 0962  58		      C     pop ax
 0963  C3		      C     ret
			      C 
				include game\render\primitives.asm
 0964			      C draw_rect_outline:
 0964  50		      C     push ax
 0965  53		      C     push bx
 0966  51		      C     push cx
 0967  52		      C     push dx
 0968  55		      C     push bp
 0969  2E: 89 0E 15C1 R	      C     mov [rect_w], cx
 096E  2E: 89 2E 15C3 R	      C     mov [rect_h], bp
			      C 
 0973  53		      C     push bx
 0974  52		      C     push dx
 0975  BD 0001		      C     mov bp, 1
 0978  2E: 8B 0E 15C1 R	      C     mov cx, [rect_w]
 097D  E8 003D		      C     call fill_rect
 0980  5A		      C     pop dx
 0981  5B		      C     pop bx
			      C 
 0982  53		      C     push bx
 0983  52		      C     push dx
 0984  2E: 03 16 15C3 R	      C     add dx, [rect_h]
 0989  4A		      C     dec dx
 098A  BD 0001		      C     mov bp, 1
 098D  2E: 8B 0E 15C1 R	      C     mov cx, [rect_w]
 0992  E8 0028		      C     call fill_rect
 0995  5A		      C     pop dx
 0996  5B		      C     pop bx
			      C 
 0997  53		      C     push bx
 0998  52		      C     push dx
 0999  B9 0001		      C     mov cx, 1
 099C  2E: 8B 2E 15C3 R	      C     mov bp, [rect_h]
 09A1  E8 0019		      C     call fill_rect
 09A4  5A		      C     pop dx
 09A5  5B		      C     pop bx
			      C 
 09A6  2E: 03 1E 15C1 R	      C     add bx, [rect_w]
 09AB  4B		      C     dec bx
 09AC  B9 0001		      C     mov cx, 1
 09AF  2E: 8B 2E 15C3 R	      C     mov bp, [rect_h]
 09B4  E8 0006		      C     call fill_rect
 09B7  5D		      C     pop bp
 09B8  5A		      C     pop dx
 09B9  59		      C     pop cx
 09BA  5B		      C     pop bx
 09BB  58		      C     pop ax
 09BC  C3		      C     ret
			      C 
 09BD			      C fill_rect:
 09BD  50		      C     push ax
 09BE  53		      C     push bx
 09BF  51		      C     push cx
 09C0  52		      C     push dx
 09C1  56		      C     push si
 09C2  57		      C     push di
 09C3  55		      C     push bp
 09C4  8B F1		      C     mov si, cx
 09C6  E8 0028		      C     call compute_offset
			      C 
 09C9			      C fill_rect_row:
 09C9  0B ED		      C     or bp, bp
 09CB  74 0F		      C     jz fill_rect_done
 09CD  57		      C     push di
 09CE  8B CE		      C     mov cx, si
 09D0  F3/ AA		      C     rep stosb
 09D2  5F		      C     pop di
 09D3  81 C7 0140	      C     add di, SCREEN_W
 09D7  2B FE		      C     sub di, si
 09D9  4D		      C     dec bp
 09DA  EB ED		      C     jmp fill_rect_row
			      C 
 09DC			      C fill_rect_done:
 09DC  5D		      C     pop bp
 09DD  5F		      C     pop di
 09DE  5E		      C     pop si
 09DF  5A		      C     pop dx
 09E0  59		      C     pop cx
 09E1  5B		      C     pop bx
 09E2  58		      C     pop ax
 09E3  C3		      C     ret
			      C 
 09E4			      C put_pixel:
 09E4  53		      C     push bx
 09E5  52		      C     push dx
 09E6  57		      C     push di
 09E7  E8 0007		      C     call compute_offset
 09EA  26: 88 05	      C     mov es:[di], al
 09ED  5F		      C     pop di
 09EE  5A		      C     pop dx
 09EF  5B		      C     pop bx
 09F0  C3		      C     ret
			      C 
 09F1			      C compute_offset:
			      C     ; Map (bx, dx) onto the current linear framebuffer selected in ES.
 09F1  50		      C     push ax
 09F2  8B C2		      C     mov ax, dx
 09F4  C1 E0 06		      C     shl ax, 6
 09F7  8B F8		      C     mov di, ax
 09F9  8B C2		      C     mov ax, dx
 09FB  C1 E0 08		      C     shl ax, 8
 09FE  03 F8		      C     add di, ax
 0A00  03 FB		      C     add di, bx
 0A02  58		      C     pop ax
 0A03  C3		      C     ret
			      C 
				include game\render\palette.asm
 0A04			      C init_palette:
 0A04  50		      C     push ax
 0A05  51		      C     push cx
 0A06  52		      C     push dx
 0A07  56		      C     push si
 0A08  BA 03C8		      C     mov dx, 03C8h
 0A0B  32 C0		      C     xor al, al
 0A0D  EE		      C     out dx, al
 0A0E  42		      C     inc dx
 0A0F  BE 1FB3 R	      C     mov si, offset palette_data
 0A12  B9 0036		      C     mov cx, PALETTE_BYTES
			      C 
 0A15			      C init_palette_loop:
 0A15  AC		      C     lodsb
 0A16  EE		      C     out dx, al
 0A17  E2 FC		      C     loop init_palette_loop
 0A19  5E		      C     pop si
 0A1A  5A		      C     pop dx
 0A1B  59		      C     pop cx
 0A1C  58		      C     pop ax
 0A1D  C3		      C     ret
			      C 
				include game\render\text.asm
 0A1E			      C draw_text_small:
 0A1E  2E: 89 1E 15B9 R	      C     mov [text_cursor_x], bx
 0A23  2E: 89 16 15BB R	      C     mov [text_cursor_y], dx
 0A28  2E: 88 26 15C5 R	      C     mov [text_color], ah
			      C 
 0A2D			      C draw_text_small_loop:
 0A2D  AC		      C     lodsb
 0A2E  0A C0		      C     or al, al
 0A30  74 20		      C     jz draw_text_small_done
 0A32  3C 20		      C     cmp al, ' '
 0A34  74 14		      C     je draw_text_small_space
 0A36  56		      C     push si
 0A37  2E: 8B 1E 15B9 R	      C     mov bx, [text_cursor_x]
 0A3C  2E: 8B 16 15BB R	      C     mov dx, [text_cursor_y]
 0A41  2E: 8A 26 15C5 R	      C     mov ah, [text_color]
 0A46  E8 0067		      C     call draw_char_1x
 0A49  5E		      C     pop si
			      C 
 0A4A			      C draw_text_small_space:
 0A4A  2E: 83 06 15B9 R	      C     add word ptr [text_cursor_x], 6
       06
 0A50  EB DB		      C     jmp draw_text_small_loop
			      C 
 0A52			      C draw_text_small_done:
 0A52  C3		      C     ret
			      C 
 0A53			      C draw_text_big:
 0A53  2E: 89 1E 15B9 R	      C     mov [text_cursor_x], bx
 0A58  2E: 89 16 15BB R	      C     mov [text_cursor_y], dx
 0A5D  2E: 88 26 15C5 R	      C     mov [text_color], ah
			      C 
 0A62			      C draw_text_big_loop:
 0A62  AC		      C     lodsb
 0A63  0A C0		      C     or al, al
 0A65  74 20		      C     jz draw_text_big_done
 0A67  3C 20		      C     cmp al, ' '
 0A69  74 14		      C     je draw_text_big_space
 0A6B  56		      C     push si
 0A6C  2E: 8B 1E 15B9 R	      C     mov bx, [text_cursor_x]
 0A71  2E: 8B 16 15BB R	      C     mov dx, [text_cursor_y]
 0A76  2E: 8A 26 15C5 R	      C     mov ah, [text_color]
 0A7B  E8 008B		      C     call draw_char_2x
 0A7E  5E		      C     pop si
			      C 
 0A7F			      C draw_text_big_space:
 0A7F  2E: 83 06 15B9 R	      C     add word ptr [text_cursor_x], 12
       0C
 0A85  EB DB		      C     jmp draw_text_big_loop
			      C 
 0A87			      C draw_text_big_done:
 0A87  C3		      C     ret
			      C 
 0A88			      C draw_digit_small:
 0A88  04 30		      C     add al, '0'
 0A8A  E8 0023		      C     call draw_char_1x
 0A8D  C3		      C     ret
			      C 
 0A8E			      C draw_two_digit_small:
 0A8E  2E: 88 26 15C5 R	      C     mov [text_color], ah
 0A93  D4 0A		      C     aam
 0A95  05 3030		      C     add ax, 3030h
 0A98  50		      C     push ax
 0A99  8A C4		      C     mov al, ah
 0A9B  2E: 8A 26 15C5 R	      C     mov ah, [text_color]
 0AA0  E8 000D		      C     call draw_char_1x
 0AA3  58		      C     pop ax
 0AA4  83 C3 06		      C     add bx, 6
 0AA7  2E: 8A 26 15C5 R	      C     mov ah, [text_color]
 0AAC  E8 0001		      C     call draw_char_1x
 0AAF  C3		      C     ret
			      C 
 0AB0			      C draw_char_1x:
 0AB0  50		      C     push ax
 0AB1  53		      C     push bx
 0AB2  51		      C     push cx
 0AB3  52		      C     push dx
 0AB4  56		      C     push si
 0AB5  57		      C     push di
 0AB6  55		      C     push bp
 0AB7  2E: 88 26 15C5 R	      C     mov [text_color], ah
 0ABC  2E: 89 1E 15BD R	      C     mov [glyph_base_x], bx
 0AC1  2E: 89 16 15BF R	      C     mov [glyph_base_y], dx
 0AC6  E8 00AE		      C     call get_glyph_ptr
 0AC9  33 ED		      C     xor bp, bp
			      C 
 0ACB			      C draw_char_1x_row:
 0ACB  83 FD 07		      C     cmp bp, 7
 0ACE  73 31		      C     jae draw_char_1x_done
 0AD0  8A 04		      C     mov al, [si]
 0AD2  46		      C     inc si
 0AD3  2E: A2 15C6 R	      C     mov [glyph_row_bits], al
 0AD7  2E: 8B 1E 15BD R	      C     mov bx, [glyph_base_x]
 0ADC  2E: 8B 16 15BF R	      C     mov dx, [glyph_base_y]
 0AE1  03 D5		      C     add dx, bp
 0AE3  E8 FF0B		      C     call compute_offset
 0AE6  2E: A0 15C6 R	      C     mov al, [glyph_row_bits]
 0AEA  2E: 8A 26 15C5 R	      C     mov ah, [text_color]
 0AEF  B9 0005		      C     mov cx, 5
			      C 
 0AF2			      C draw_char_1x_col:
 0AF2  A8 10		      C     test al, 10h
 0AF4  74 03		      C     jz draw_char_1x_skip
 0AF6  26: 88 25	      C     mov es:[di], ah
 0AF9			      C draw_char_1x_skip:
 0AF9  47		      C     inc di
 0AFA  D0 E0		      C     shl al, 1
 0AFC  E2 F4		      C     loop draw_char_1x_col
 0AFE  45		      C     inc bp
 0AFF  EB CA		      C     jmp draw_char_1x_row
			      C 
 0B01			      C draw_char_1x_done:
 0B01  5D		      C     pop bp
 0B02  5F		      C     pop di
 0B03  5E		      C     pop si
 0B04  5A		      C     pop dx
 0B05  59		      C     pop cx
 0B06  5B		      C     pop bx
 0B07  58		      C     pop ax
 0B08  C3		      C     ret
			      C 
 0B09			      C draw_char_2x:
 0B09  50		      C     push ax
 0B0A  53		      C     push bx
 0B0B  51		      C     push cx
 0B0C  52		      C     push dx
 0B0D  56		      C     push si
 0B0E  57		      C     push di
 0B0F  55		      C     push bp
 0B10  2E: 88 26 15C5 R	      C     mov [text_color], ah
 0B15  2E: 89 1E 15BD R	      C     mov [glyph_base_x], bx
 0B1A  2E: 89 16 15BF R	      C     mov [glyph_base_y], dx
 0B1F  E8 0055		      C     call get_glyph_ptr
 0B22  33 ED		      C     xor bp, bp
			      C 
 0B24			      C draw_char_2x_row:
 0B24  83 FD 07		      C     cmp bp, 7
 0B27  73 46		      C     jae draw_char_2x_done
 0B29  8A 04		      C     mov al, [si]
 0B2B  46		      C     inc si
 0B2C  2E: A2 15C6 R	      C     mov [glyph_row_bits], al
 0B30  33 FF		      C     xor di, di
			      C 
 0B32			      C draw_char_2x_col:
 0B32  83 FF 05		      C     cmp di, 5
 0B35  73 35		      C     jae draw_char_2x_next_row
 0B37  2E: A0 15C6 R	      C     mov al, [glyph_row_bits]
 0B3B  A8 10		      C     test al, 10h
 0B3D  74 25		      C     jz draw_char_2x_skip
 0B3F  55		      C     push bp
 0B40  2E: 8B 1E 15BD R	      C     mov bx, [glyph_base_x]
 0B45  2E: 8B 16 15BF R	      C     mov dx, [glyph_base_y]
 0B4A  8B C7		      C     mov ax, di
 0B4C  D1 E0		      C     shl ax, 1
 0B4E  03 D8		      C     add bx, ax
 0B50  8B C5		      C     mov ax, bp
 0B52  D1 E0		      C     shl ax, 1
 0B54  03 D0		      C     add dx, ax
 0B56  B9 0002		      C     mov cx, 2
 0B59  BD 0002		      C     mov bp, 2
 0B5C  2E: A0 15C5 R	      C     mov al, [text_color]
 0B60  E8 FE5A		      C     call fill_rect
 0B63  5D		      C     pop bp
			      C 
 0B64			      C draw_char_2x_skip:
 0B64  2E: D0 26 15C6 R	      C     shl byte ptr [glyph_row_bits], 1
 0B69  47		      C     inc di
 0B6A  EB C6		      C     jmp draw_char_2x_col
			      C 
 0B6C			      C draw_char_2x_next_row:
 0B6C  45		      C     inc bp
 0B6D  EB B5		      C     jmp draw_char_2x_row
			      C 
 0B6F			      C draw_char_2x_done:
 0B6F  5D		      C     pop bp
 0B70  5F		      C     pop di
 0B71  5E		      C     pop si
 0B72  5A		      C     pop dx
 0B73  59		      C     pop cx
 0B74  5B		      C     pop bx
 0B75  58		      C     pop ax
 0B76  C3		      C     ret
			      C 
 0B77			      C get_glyph_ptr:
 0B77  3C 41		      C     cmp al, 'A'
 0B79  72 08		      C     jb glyph_check_digit
 0B7B  3C 5A		      C     cmp al, 'Z'
 0B7D  77 04		      C     ja glyph_check_digit
 0B7F  2C 41		      C     sub al, 'A'
 0B81  EB 18		      C     jmp glyph_index_ready
			      C 
 0B83			      C glyph_check_digit:
 0B83  3C 30		      C     cmp al, '0'
 0B85  72 0A		      C     jb glyph_check_period
 0B87  3C 39		      C     cmp al, '9'
 0B89  77 06		      C     ja glyph_check_period
 0B8B  2C 30		      C     sub al, '0'
 0B8D  04 1A		      C     add al, 26
 0B8F  EB 0A		      C     jmp glyph_index_ready
			      C 
 0B91			      C glyph_check_period:
 0B91  3C 2E		      C     cmp al, '.'
 0B93  75 04		      C     jne glyph_space
 0B95  B0 24		      C     mov al, 36
 0B97  EB 02		      C     jmp glyph_index_ready
			      C 
 0B99			      C glyph_space:
 0B99  B0 25		      C     mov al, 37
			      C 
 0B9B			      C glyph_index_ready:
 0B9B  32 E4		      C     xor ah, ah
 0B9D  8B F0		      C     mov si, ax
 0B9F  C1 E0 03		      C     shl ax, 3
 0BA2  2B C6		      C     sub ax, si
 0BA4  8B F0		      C     mov si, ax
 0BA6  81 C6 1FE9 R	      C     add si, offset font5x7
 0BAA  C3		      C     ret
			      C 
				include game\render\sprites.asm
 0BAB			      C draw_sprite8:
 0BAB  50		      C     push ax
 0BAC  53		      C     push bx
 0BAD  51		      C     push cx
 0BAE  52		      C     push dx
 0BAF  56		      C     push si
 0BB0  57		      C     push di
 0BB1  55		      C     push bp
 0BB2  2E: 89 1E 15BD R	      C     mov [glyph_base_x], bx
 0BB7  2E: 89 16 15BF R	      C     mov [glyph_base_y], dx
 0BBC  33 ED		      C     xor bp, bp
			      C 
 0BBE			      C draw_sprite_row:
 0BBE  83 FD 08		      C     cmp bp, 8
 0BC1  73 20		      C     jae draw_sprite_done
 0BC3  2E: 8B 1E 15BD R	      C     mov bx, [glyph_base_x]
 0BC8  2E: 8B 16 15BF R	      C     mov dx, [glyph_base_y]
 0BCD  03 D5		      C     add dx, bp
 0BCF  E8 FE1F		      C     call compute_offset
 0BD2  B9 0008		      C     mov cx, 8
			      C 
 0BD5			      C draw_sprite_col:
 0BD5  AC		      C     lodsb
 0BD6  0A C0		      C     or al, al
 0BD8  74 03		      C     jz draw_sprite_skip
 0BDA  26: 88 05	      C     mov es:[di], al
 0BDD			      C draw_sprite_skip:
 0BDD  47		      C     inc di
 0BDE  E2 F5		      C     loop draw_sprite_col
 0BE0  45		      C     inc bp
 0BE1  EB DB		      C     jmp draw_sprite_row
			      C 
 0BE3			      C draw_sprite_done:
 0BE3  5D		      C     pop bp
 0BE4  5F		      C     pop di
 0BE5  5E		      C     pop si
 0BE6  5A		      C     pop dx
 0BE7  59		      C     pop cx
 0BE8  5B		      C     pop bx
 0BE9  58		      C     pop ax
 0BEA  C3		      C     ret
			      C 
 0BEB			      C draw_bitmap8:
 0BEB  50		      C     push ax
 0BEC  53		      C     push bx
 0BED  51		      C     push cx
 0BEE  52		      C     push dx
 0BEF  56		      C     push si
 0BF0  57		      C     push di
 0BF1  55		      C     push bp
 0BF2  2E: 89 1E 15BD R	      C     mov [glyph_base_x], bx
 0BF7  2E: 89 16 15BF R	      C     mov [glyph_base_y], dx
 0BFC  33 ED		      C     xor bp, bp
			      C 
 0BFE			      C draw_bitmap8_row:
 0BFE  83 FD 08		      C     cmp bp, 8
 0C01  73 17		      C     jae draw_bitmap8_done
 0C03  2E: 8B 1E 15BD R	      C     mov bx, [glyph_base_x]
 0C08  2E: 8B 16 15BF R	      C     mov dx, [glyph_base_y]
 0C0D  03 D5		      C     add dx, bp
 0C0F  E8 FDDF		      C     call compute_offset
 0C12  B9 0008		      C     mov cx, 8
 0C15  F3/ A4		      C     rep movsb
 0C17  45		      C     inc bp
 0C18  EB E4		      C     jmp draw_bitmap8_row
			      C 
 0C1A			      C draw_bitmap8_done:
 0C1A  5D		      C     pop bp
 0C1B  5F		      C     pop di
 0C1C  5E		      C     pop si
 0C1D  5A		      C     pop dx
 0C1E  59		      C     pop cx
 0C1F  5B		      C     pop bx
 0C20  58		      C     pop ax
 0C21  C3		      C     ret
			      C 
 0C22			      C draw_sprite16_2x:
 0C22  50		      C     push ax
 0C23  53		      C     push bx
 0C24  51		      C     push cx
 0C25  52		      C     push dx
 0C26  56		      C     push si
 0C27  57		      C     push di
 0C28  55		      C     push bp
 0C29  2E: 89 1E 15BD R	      C     mov [glyph_base_x], bx
 0C2E  2E: 89 16 15BF R	      C     mov [glyph_base_y], dx
 0C33  33 ED		      C     xor bp, bp
			      C 
 0C35			      C draw_sprite16_2x_row:
 0C35  83 FD 10		      C     cmp bp, 16
 0C38  73 3D		      C     jae draw_sprite16_2x_done
 0C3A  33 FF		      C     xor di, di
			      C 
 0C3C			      C draw_sprite16_2x_col:
 0C3C  83 FF 10		      C     cmp di, 16
 0C3F  73 33		      C     jae draw_sprite16_2x_next_row
 0C41  AC		      C     lodsb
 0C42  0A C0		      C     or al, al
 0C44  74 2B		      C     jz draw_sprite16_2x_skip
 0C46  2E: A2 15C5 R	      C     mov [text_color], al
 0C4A  55		      C     push bp
 0C4B  57		      C     push di
 0C4C  2E: 8B 1E 15BD R	      C     mov bx, [glyph_base_x]
 0C51  2E: 8B 16 15BF R	      C     mov dx, [glyph_base_y]
 0C56  8B C7		      C     mov ax, di
 0C58  D1 E0		      C     shl ax, 1
 0C5A  03 D8		      C     add bx, ax
 0C5C  8B C5		      C     mov ax, bp
 0C5E  D1 E0		      C     shl ax, 1
 0C60  03 D0		      C     add dx, ax
 0C62  B9 0002		      C     mov cx, 2
 0C65  BD 0002		      C     mov bp, 2
 0C68  2E: A0 15C5 R	      C     mov al, [text_color]
 0C6C  E8 FD4E		      C     call fill_rect
 0C6F  5F		      C     pop di
 0C70  5D		      C     pop bp
			      C 
 0C71			      C draw_sprite16_2x_skip:
 0C71  47		      C     inc di
 0C72  EB C8		      C     jmp draw_sprite16_2x_col
			      C 
 0C74			      C draw_sprite16_2x_next_row:
 0C74  45		      C     inc bp
 0C75  EB BE		      C     jmp draw_sprite16_2x_row
			      C 
 0C77			      C draw_sprite16_2x_done:
 0C77  5D		      C     pop bp
 0C78  5F		      C     pop di
 0C79  5E		      C     pop si
 0C7A  5A		      C     pop dx
 0C7B  59		      C     pop cx
 0C7C  5B		      C     pop bx
 0C7D  58		      C     pop ax
 0C7E  C3		      C     ret
			      C 
				include game\render\scenes.asm
 0C7F			      C render_screen:
			      C     ; Most render helpers write through ES and expect it to stay pointed at the
			      C     ; backbuffer for the duration of the frame.
 0C7F  B8 9000		      C     mov ax, BACKBUFFER_SEG
 0C82  8E C0		      C     mov es, ax
 0C84  E8 FC64		      C     call clear_backbuffer
 0C87  E8 FC72		      C     call draw_starfield
			      C 
 0C8A  2E: 80 3E 1396 R	      C     cmp byte ptr [game_state], STATE_SPLASH
       04
 0C90  74 1D		      C     je render_splash_screen
 0C92  2E: 80 3E 1396 R	      C     cmp byte ptr [game_state], STATE_TITLE
       00
 0C98  74 1A		      C     je render_title_screen
 0C9A  2E: 80 3E 1396 R	      C     cmp byte ptr [game_state], STATE_WIN
       02
 0CA0  74 17		      C     je render_win_screen
 0CA2  2E: 80 3E 1396 R	      C     cmp byte ptr [game_state], STATE_LOSE
       03
 0CA8  74 14		      C     je render_lose_screen
 0CAA  E8 02D5		      C     call render_game_screen
 0CAD  EB 12		      C     jmp render_present
			      C 
 0CAF			      C render_splash_screen:
 0CAF  E8 0013		      C     call draw_splash_scene
 0CB2  EB 0D		      C     jmp render_present
			      C 
 0CB4			      C render_title_screen:
 0CB4  E8 00FB		      C     call draw_title_scene
 0CB7  EB 08		      C     jmp render_present
			      C 
 0CB9			      C render_win_screen:
 0CB9  E8 0214		      C     call draw_win_scene
 0CBC  EB 03		      C     jmp render_present
			      C 
 0CBE			      C render_lose_screen:
 0CBE  E8 0268		      C     call draw_lose_scene
			      C 
 0CC1			      C render_present:
 0CC1  E8 FC7F		      C     call present_frame
 0CC4  C3		      C     ret
			      C 
 0CC5			      C draw_splash_scene:
 0CC5  BB 0030		      C     mov bx, 48
 0CC8  BA 0022		      C     mov dx, 34
 0CCB  B9 00E0		      C     mov cx, 224
 0CCE  BD 007C		      C     mov bp, 124
 0CD1  B0 03		      C     mov al, PAL_PANEL
 0CD3  E8 FCE7		      C     call fill_rect
			      C 
 0CD6  BB 002C		      C     mov bx, 44
 0CD9  BA 001E		      C     mov dx, 30
 0CDC  B9 00E8		      C     mov cx, 232
 0CDF  BD 0084		      C     mov bp, 132
 0CE2  2E: F6 06 13A6 R	      C     test byte ptr [anim_phase], 1
       01
 0CE8  74 04		      C     jz splash_frame_base
 0CEA  B0 06		      C     mov al, PAL_CYAN2
 0CEC  EB 02		      C     jmp splash_frame_ready
			      C 
 0CEE			      C splash_frame_base:
 0CEE  B0 05		      C     mov al, PAL_CYAN
			      C 
 0CF0			      C splash_frame_ready:
 0CF0  E8 FC71		      C     call draw_rect_outline
			      C 
 0CF3  BB 003C		      C     mov bx, 60
 0CF6  BA 0036		      C     mov dx, 54
 0CF9  B9 0034		      C     mov cx, 52
 0CFC  BD 0034		      C     mov bp, 52
 0CFF  B0 04		      C     mov al, PAL_PANEL2
 0D01  E8 FCB9		      C     call fill_rect
			      C 
 0D04  BB 003A		      C     mov bx, 58
 0D07  BA 0034		      C     mov dx, 52
 0D0A  B9 0038		      C     mov cx, 56
 0D0D  BD 0038		      C     mov bp, 56
 0D10  B0 05		      C     mov al, PAL_CYAN
 0D12  E8 FC4F		      C     call draw_rect_outline
			      C 
 0D15  BB 0046		      C     mov bx, 70
 0D18  BA 0040		      C     mov dx, 64
 0D1B  BE 1C53 R	      C     mov si, offset sprite_bitriver_mark
 0D1E  E8 FF01		      C     call draw_sprite16_2x
			      C 
 0D21  BB 007E		      C     mov bx, 126
 0D24  BA 003E		      C     mov dx, 62
 0D27  BE 18CD R	      C     mov si, offset splash_brand
 0D2A  B4 06		      C     mov ah, PAL_CYAN2
 0D2C  E8 FD24		      C     call draw_text_big
			      C 
 0D2F  BB 0094		      C     mov bx, 148
 0D32  BA 005C		      C     mov dx, 92
 0D35  BE 18D6 R	      C     mov si, offset splash_subtitle
 0D38  B4 07		      C     mov ah, PAL_WHITE
 0D3A  E8 FCE1		      C     call draw_text_small
			      C 
 0D3D  BB 0042		      C     mov bx, 66
 0D40  BA 007A		      C     mov dx, 122
 0D43  BE 18DF R	      C     mov si, offset splash_tagline
 0D46  B4 05		      C     mov ah, PAL_CYAN
 0D48  E8 FCD3		      C     call draw_text_small
			      C 
 0D4B  BB 004E		      C     mov bx, 78
 0D4E  BA 008E		      C     mov dx, 142
 0D51  B9 00A4		      C     mov cx, 164
 0D54  BD 0008		      C     mov bp, 8
 0D57  B0 04		      C     mov al, PAL_PANEL2
 0D59  E8 FC61		      C     call fill_rect
			      C 
 0D5C  BB 004C		      C     mov bx, 76
 0D5F  BA 008C		      C     mov dx, 140
 0D62  B9 00A8		      C     mov cx, 168
 0D65  BD 000C		      C     mov bp, 12
 0D68  B0 05		      C     mov al, PAL_CYAN
 0D6A  E8 FBF7		      C     call draw_rect_outline
			      C 
 0D6D  33 C0		      C     xor ax, ax
 0D6F  2E: A0 13A7 R	      C     mov al, [splash_ticks]
 0D73  8B C8		      C     mov cx, ax
 0D75  D1 E0		      C     shl ax, 1
 0D77  03 C1		      C     add ax, cx
 0D79  8B C8		      C     mov cx, ax
 0D7B  E3 1A		      C     jcxz splash_bar_done
 0D7D  BB 0050		      C     mov bx, 80
 0D80  BA 0090		      C     mov dx, 144
 0D83  BD 0004		      C     mov bp, 4
 0D86  2E: F6 06 13A6 R	      C     test byte ptr [anim_phase], 1
       01
 0D8C  74 04		      C     jz splash_bar_base
 0D8E  B0 07		      C     mov al, PAL_WHITE
 0D90  EB 02		      C     jmp splash_bar_ready
			      C 
 0D92			      C splash_bar_base:
 0D92  B0 11		      C     mov al, PAL_GATE
			      C 
 0D94			      C splash_bar_ready:
 0D94  E8 FC26		      C     call fill_rect
			      C 
 0D97			      C splash_bar_done:
 0D97  BB 0072		      C     mov bx, 114
 0D9A  BA 009E		      C     mov dx, 158
 0D9D  BE 1905 R	      C     mov si, offset splash_skip
 0DA0  2E: F6 06 13A6 R	      C     test byte ptr [anim_phase], 1
       01
 0DA6  74 04		      C     jz splash_skip_dim
 0DA8  B4 07		      C     mov ah, PAL_WHITE
 0DAA  EB 02		      C     jmp splash_skip_ready
			      C 
 0DAC			      C splash_skip_dim:
 0DAC  B4 08		      C     mov ah, PAL_AMBER
			      C 
 0DAE			      C splash_skip_ready:
 0DAE  E8 FC6D		      C     call draw_text_small
 0DB1  C3		      C     ret
			      C 
 0DB2			      C draw_title_scene:
 0DB2  BB 0018		      C     mov bx, 24
 0DB5  BA 001A		      C     mov dx, 26
 0DB8  B9 0110		      C     mov cx, 272
 0DBB  BD 0084		      C     mov bp, 132
 0DBE  B0 03		      C     mov al, PAL_PANEL
 0DC0  E8 FBFA		      C     call fill_rect
			      C 
 0DC3  BB 0014		      C     mov bx, 20
 0DC6  BA 0016		      C     mov dx, 22
 0DC9  B9 0118		      C     mov cx, 280
 0DCC  BD 008C		      C     mov bp, 140
 0DCF  2E: F6 06 13A6 R	      C     test byte ptr [anim_phase], 1
       01
 0DD5  74 04		      C     jz title_frame_dim
 0DD7  B0 06		      C     mov al, PAL_CYAN2
 0DD9  EB 02		      C     jmp title_frame_ready
			      C 
 0DDB			      C title_frame_dim:
 0DDB  B0 05		      C     mov al, PAL_CYAN
			      C 
 0DDD			      C title_frame_ready:
 0DDD  E8 FB84		      C     call draw_rect_outline
			      C 
 0DE0  BB 0022		      C     mov bx, 34
 0DE3  BA 002A		      C     mov dx, 42
 0DE6  BE 1923 R	      C     mov si, offset title_logo
 0DE9  B4 06		      C     mov ah, PAL_CYAN2
 0DEB  E8 FC65		      C     call draw_text_big
			      C 
 0DEE  BB 002A		      C     mov bx, 42
 0DF1  BA 0054		      C     mov dx, 84
 0DF4  BE 192E R	      C     mov si, offset title_line_1
 0DF7  B4 07		      C     mov ah, PAL_WHITE
 0DF9  E8 FC22		      C     call draw_text_small
			      C 
 0DFC  BB 002A		      C     mov bx, 42
 0DFF  BA 0060		      C     mov dx, 96
 0E02  BE 1950 R	      C     mov si, offset title_line_2
 0E05  B4 07		      C     mov ah, PAL_WHITE
 0E07  E8 FC14		      C     call draw_text_small
			      C 
 0E0A  BB 002A		      C     mov bx, 42
 0E0D  BA 006C		      C     mov dx, 108
 0E10  BE 1974 R	      C     mov si, offset title_line_3
 0E13  B4 07		      C     mov ah, PAL_WHITE
 0E15  E8 FC06		      C     call draw_text_small
			      C 
 0E18  BB 003E		      C     mov bx, 62
 0E1B  BA 0084		      C     mov dx, 132
 0E1E  BE 199A R	      C     mov si, offset title_line_4
 0E21  2E: F6 06 13A6 R	      C     test byte ptr [anim_phase], 2
       02
 0E27  74 04		      C     jz title_prompt_amber
 0E29  B4 07		      C     mov ah, PAL_WHITE
 0E2B  EB 02		      C     jmp title_line_ready
			      C 
 0E2D			      C title_prompt_amber:
 0E2D  B4 08		      C     mov ah, PAL_AMBER
			      C 
 0E2F			      C title_line_ready:
 0E2F  E8 FBEC		      C     call draw_text_small
			      C 
 0E32  BB 004A		      C     mov bx, 74
 0E35  BA 0096		      C     mov dx, 150
 0E38  BE 19B4 R	      C     mov si, offset title_prompt
 0E3B  B4 05		      C     mov ah, PAL_CYAN
 0E3D  E8 FBDE		      C     call draw_text_small
			      C 
 0E40  BB 002A		      C     mov bx, 42
 0E43  BA 00A6		      C     mov dx, 166
 0E46  BE 19CE R	      C     mov si, offset debug_keys_text
 0E49  B4 08		      C     mov ah, PAL_AMBER
 0E4B  E8 FBD0		      C     call draw_text_small
			      C 
 0E4E  2E: A0 13AA R	      C     mov al, [input_event_count]
 0E52  B4 07		      C     mov ah, PAL_WHITE
 0E54  BB 0044		      C     mov bx, 68
 0E57  BA 00A6		      C     mov dx, 166
 0E5A  E8 FC31		      C     call draw_two_digit_small
			      C 
 0E5D  BB 005C		      C     mov bx, 92
 0E60  BA 00A6		      C     mov dx, 166
 0E63  BE 19D3 R	      C     mov si, offset debug_enter_text
 0E66  B4 08		      C     mov ah, PAL_AMBER
 0E68  E8 FBB3		      C     call draw_text_small
			      C 
 0E6B  32 C0		      C     xor al, al
 0E6D  2E: A0 13AF R	      C     mov al, [pressed_enter]
 0E71  B4 07		      C     mov ah, PAL_WHITE
 0E73  BB 0076		      C     mov bx, 118
 0E76  BA 00A6		      C     mov dx, 166
 0E79  E8 FC0C		      C     call draw_digit_small
			      C 
 0E7C  BB 008E		      C     mov bx, 142
 0E7F  BA 00A6		      C     mov dx, 166
 0E82  BE 19D8 R	      C     mov si, offset debug_check_text
 0E85  B4 08		      C     mov ah, PAL_AMBER
 0E87  E8 FB94		      C     call draw_text_small
			      C 
 0E8A  2E: A0 13AC R	      C     mov al, [input_check_count]
 0E8E  B4 07		      C     mov ah, PAL_WHITE
 0E90  BB 00A8		      C     mov bx, 168
 0E93  BA 00A6		      C     mov dx, 166
 0E96  E8 FBF5		      C     call draw_two_digit_small
			      C 
 0E99  BB 00BA		      C     mov bx, 186
 0E9C  BA 00A6		      C     mov dx, 166
 0E9F  BE 19DD R	      C     mov si, offset debug_poll_text
 0EA2  B4 08		      C     mov ah, PAL_AMBER
 0EA4  E8 FB77		      C     call draw_text_small
			      C 
 0EA7  2E: A0 13AD R	      C     mov al, [input_poll_count]
 0EAB  B4 07		      C     mov ah, PAL_WHITE
 0EAD  BB 00D4		      C     mov bx, 212
 0EB0  BA 00A6		      C     mov dx, 166
 0EB3  E8 FBD8		      C     call draw_two_digit_small
			      C 
 0EB6  2E: F6 06 13A6 R	      C     test byte ptr [anim_phase], 1
       01
 0EBC  74 11		      C     jz title_cursor_off
 0EBE  BB 00D8		      C     mov bx, 216
 0EC1  BA 009D		      C     mov dx, 157
 0EC4  B9 000A		      C     mov cx, 10
 0EC7  BD 0002		      C     mov bp, 2
 0ECA  B0 08		      C     mov al, PAL_AMBER
 0ECC  E8 FAEE		      C     call fill_rect
			      C 
 0ECF			      C title_cursor_off:
 0ECF  C3		      C     ret
			      C 
 0ED0			      C draw_win_scene:
 0ED0  BB 001E		      C     mov bx, 30
 0ED3  BA 0022		      C     mov dx, 34
 0ED6  B9 0104		      C     mov cx, 260
 0ED9  BD 0078		      C     mov bp, 120
 0EDC  B0 03		      C     mov al, PAL_PANEL
 0EDE  E8 FADC		      C     call fill_rect
			      C 
 0EE1  BB 001A		      C     mov bx, 26
 0EE4  BA 001E		      C     mov dx, 30
 0EE7  B9 010C		      C     mov cx, 268
 0EEA  BD 0080		      C     mov bp, 128
 0EED  B0 05		      C     mov al, PAL_CYAN
 0EEF  E8 FA72		      C     call draw_rect_outline
			      C 
 0EF2  BB 004E		      C     mov bx, 78
 0EF5  BA 0036		      C     mov dx, 54
 0EF8  BE 19E2 R	      C     mov si, offset win_line_1
 0EFB  B4 06		      C     mov ah, PAL_CYAN2
 0EFD  E8 FB53		      C     call draw_text_big
			      C 
 0F00  BB 0034		      C     mov bx, 52
 0F03  BA 0064		      C     mov dx, 100
 0F06  BE 19E8 R	      C     mov si, offset win_line_2
 0F09  B4 07		      C     mov ah, PAL_WHITE
 0F0B  E8 FB10		      C     call draw_text_small
			      C 
 0F0E  BB 0046		      C     mov bx, 70
 0F11  BA 0084		      C     mov dx, 132
 0F14  BE 1A37 R	      C     mov si, offset replay_prompt
 0F17  2E: F6 06 13A6 R	      C     test byte ptr [anim_phase], 1
       01
 0F1D  74 04		      C     jz win_prompt_dim
 0F1F  B4 07		      C     mov ah, PAL_WHITE
 0F21  EB 02		      C     jmp win_prompt_ready
			      C 
 0F23			      C win_prompt_dim:
 0F23  B4 08		      C     mov ah, PAL_AMBER
			      C 
 0F25			      C win_prompt_ready:
 0F25  E8 FAF6		      C     call draw_text_small
 0F28  C3		      C     ret
			      C 
 0F29			      C draw_lose_scene:
 0F29  BB 001E		      C     mov bx, 30
 0F2C  BA 0022		      C     mov dx, 34
 0F2F  B9 0104		      C     mov cx, 260
 0F32  BD 0078		      C     mov bp, 120
 0F35  B0 03		      C     mov al, PAL_PANEL
 0F37  E8 FA83		      C     call fill_rect
			      C 
 0F3A  BB 001A		      C     mov bx, 26
 0F3D  BA 001E		      C     mov dx, 30
 0F40  B9 010C		      C     mov cx, 268
 0F43  BD 0080		      C     mov bp, 128
 0F46  B0 09		      C     mov al, PAL_RED
 0F48  E8 FA19		      C     call draw_rect_outline
			      C 
 0F4B  BB 0052		      C     mov bx, 82
 0F4E  BA 0036		      C     mov dx, 54
 0F51  BE 1A0B R	      C     mov si, offset lose_line_1
 0F54  B4 0A		      C     mov ah, PAL_RED2
 0F56  E8 FAFA		      C     call draw_text_big
			      C 
 0F59  BB 002E		      C     mov bx, 46
 0F5C  BA 0064		      C     mov dx, 100
 0F5F  BE 1A13 R	      C     mov si, offset lose_line_2
 0F62  B4 07		      C     mov ah, PAL_WHITE
 0F64  E8 FAB7		      C     call draw_text_small
			      C 
 0F67  BB 0046		      C     mov bx, 70
 0F6A  BA 0084		      C     mov dx, 132
 0F6D  BE 1A37 R	      C     mov si, offset replay_prompt
 0F70  2E: F6 06 13A6 R	      C     test byte ptr [anim_phase], 1
       01
 0F76  74 04		      C     jz lose_prompt_dim
 0F78  B4 07		      C     mov ah, PAL_WHITE
 0F7A  EB 02		      C     jmp lose_prompt_ready
			      C 
 0F7C			      C lose_prompt_dim:
 0F7C  B4 08		      C     mov ah, PAL_AMBER
			      C 
 0F7E			      C lose_prompt_ready:
 0F7E  E8 FA9D		      C     call draw_text_small
 0F81  C3		      C     ret
			      C 
				include game\render\hud.asm
 0F82			      C render_game_screen:
 0F82  E8 0010		      C     call draw_game_panels
 0F85  E8 0096		      C     call render_game_status
 0F88  E8 0233		      C     call render_map
 0F8B  E8 0324		      C     call render_enemies
 0F8E  E8 0359		      C     call render_player
 0F91  E8 0380		      C     call render_game_effects
 0F94  C3		      C     ret
			      C 
 0F95			      C draw_game_panels:
 0F95  BB 000C		      C     mov bx, 12
 0F98  BA 000A		      C     mov dx, 10
 0F9B  B9 0128		      C     mov cx, 296
 0F9E  BD 0012		      C     mov bp, 18
 0FA1  B0 03		      C     mov al, PAL_PANEL
 0FA3  E8 FA17		      C     call fill_rect
			      C 
 0FA6  BB 000C		      C     mov bx, 12
 0FA9  BA 0024		      C     mov dx, 36
 0FAC  B9 00E8		      C     mov cx, 232
 0FAF  BD 0080		      C     mov bp, 128
 0FB2  B0 03		      C     mov al, PAL_PANEL
 0FB4  E8 FA06		      C     call fill_rect
			      C 
 0FB7  BB 00FC		      C     mov bx, 252
 0FBA  BA 0024		      C     mov dx, 36
 0FBD  B9 0038		      C     mov cx, 56
 0FC0  BD 0080		      C     mov bp, 128
 0FC3  B0 03		      C     mov al, PAL_PANEL
 0FC5  E8 F9F5		      C     call fill_rect
			      C 
 0FC8  BB 000C		      C     mov bx, 12
 0FCB  BA 00AA		      C     mov dx, 170
 0FCE  B9 0128		      C     mov cx, 296
 0FD1  BD 0014		      C     mov bp, 20
 0FD4  B0 03		      C     mov al, PAL_PANEL
 0FD6  E8 F9E4		      C     call fill_rect
			      C 
 0FD9  BB 000A		      C     mov bx, 10
 0FDC  BA 0008		      C     mov dx, 8
 0FDF  B9 012C		      C     mov cx, 300
 0FE2  BD 0016		      C     mov bp, 22
 0FE5  B0 05		      C     mov al, PAL_CYAN
 0FE7  E8 F97A		      C     call draw_rect_outline
			      C 
 0FEA  BB 000A		      C     mov bx, 10
 0FED  BA 0022		      C     mov dx, 34
 0FF0  B9 00EC		      C     mov cx, 236
 0FF3  BD 0084		      C     mov bp, 132
 0FF6  B0 05		      C     mov al, PAL_CYAN
 0FF8  E8 F969		      C     call draw_rect_outline
			      C 
 0FFB  BB 00FA		      C     mov bx, 250
 0FFE  BA 0022		      C     mov dx, 34
 1001  B9 003C		      C     mov cx, 60
 1004  BD 0084		      C     mov bp, 132
 1007  B0 05		      C     mov al, PAL_CYAN
 1009  E8 F958		      C     call draw_rect_outline
			      C 
 100C  BB 000A		      C     mov bx, 10
 100F  BA 00A8		      C     mov dx, 168
 1012  B9 012C		      C     mov cx, 300
 1015  BD 0018		      C     mov bp, 24
 1018  B0 05		      C     mov al, PAL_CYAN
 101A  E8 F947		      C     call draw_rect_outline
 101D  C3		      C     ret
			      C 
 101E			      C render_game_status:
 101E  BB 0012		      C     mov bx, 18
 1021  BA 000F		      C     mov dx, 15
 1024  BE 17BD R	      C     mov si, offset hud_title
 1027  B4 06		      C     mov ah, PAL_CYAN2
 1029  E8 F9F2		      C     call draw_text_small
			      C 
 102C  BB 0074		      C     mov bx, 116
 102F  BA 000F		      C     mov dx, 15
 1032  BE 17C8 R	      C     mov si, offset sector_text
 1035  B4 07		      C     mov ah, PAL_WHITE
 1037  E8 F9E4		      C     call draw_text_small
			      C 
 103A  2E: A0 1397 R	      C     mov al, [sector_num]
 103E  B4 08		      C     mov ah, PAL_AMBER
 1040  BB 009A		      C     mov bx, 154
 1043  BA 000F		      C     mov dx, 15
 1046  E8 FA3F		      C     call draw_digit_small
			      C 
 1049  BB 00AE		      C     mov bx, 174
 104C  BA 000F		      C     mov dx, 15
 104F  BE 17CF R	      C     mov si, offset data_text
 1052  B4 07		      C     mov ah, PAL_WHITE
 1054  E8 F9C7		      C     call draw_text_small
			      C 
 1057  2E: A0 139A R	      C     mov al, [data_count]
 105B  B4 08		      C     mov ah, PAL_AMBER
 105D  BB 00C8		      C     mov bx, 200
 1060  BA 000F		      C     mov dx, 15
 1063  E8 FA22		      C     call draw_digit_small
			      C 
 1066  BB 00D6		      C     mov bx, 214
 1069  BA 000F		      C     mov dx, 15
 106C  BE 17D4 R	      C     mov si, offset kills_text
 106F  B4 07		      C     mov ah, PAL_WHITE
 1071  E8 F9AA		      C     call draw_text_small
			      C 
 1074  2E: A0 139B R	      C     mov al, [kill_count]
 1078  B4 08		      C     mov ah, PAL_AMBER
 107A  BB 00F8		      C     mov bx, 248
 107D  BA 000F		      C     mov dx, 15
 1080  E8 FA0B		      C     call draw_two_digit_small
			      C 
 1083  BB 0102		      C     mov bx, 258
 1086  BA 002E		      C     mov dx, 46
 1089  BE 17DA R	      C     mov si, offset shield_text
 108C  B4 07		      C     mov ah, PAL_WHITE
 108E  E8 F98D		      C     call draw_text_small
			      C 
 1091  BB 0102		      C     mov bx, 258
 1094  BA 0058		      C     mov dx, 88
 1097  BE 17E1 R	      C     mov si, offset pulse_text
 109A  B4 07		      C     mov ah, PAL_WHITE
 109C  E8 F97F		      C     call draw_text_small
			      C 
 109F  BB 0102		      C     mov bx, 258
 10A2  BA 0082		      C     mov dx, 130
 10A5  BE 17E7 R	      C     mov si, offset gate_text
 10A8  B4 07		      C     mov ah, PAL_WHITE
 10AA  E8 F971		      C     call draw_text_small
			      C 
 10AD  E8 002F		      C     call draw_shield_meter
 10B0  E8 007C		      C     call draw_pulse_meter
 10B3  E8 00B5		      C     call draw_gate_meter
			      C 
 10B6  33 C0		      C     xor ax, ax
 10B8  2E: A0 139C R	      C     mov al, [message_id]
 10BC  D1 E0		      C     shl ax, 1
 10BE  8B D8		      C     mov bx, ax
 10C0  2E: 8B B7 17A7 R	      C     mov si, word ptr [message_table + bx]
 10C5  BB 0012		      C     mov bx, 18
 10C8  BA 00AF		      C     mov dx, 175
 10CB  B4 07		      C     mov ah, PAL_WHITE
 10CD  E8 F94E		      C     call draw_text_small
			      C 
 10D0  BB 0012		      C     mov bx, 18
 10D3  BA 00B8		      C     mov dx, 184
 10D6  BE 17EC R	      C     mov si, offset controls_text
 10D9  B4 05		      C     mov ah, PAL_CYAN
 10DB  E8 F940		      C     call draw_text_small
 10DE  C3		      C     ret
			      C 
 10DF			      C draw_shield_meter:
 10DF  BB 0102		      C     mov bx, 258
 10E2  BA 003A		      C     mov dx, 58
 10E5  B9 0005		      C     mov cx, 5
 10E8  33 FF		      C     xor di, di
			      C 
 10EA			      C shield_meter_loop:
 10EA  53		      C     push bx
 10EB  52		      C     push dx
 10EC  51		      C     push cx
 10ED  B9 000C		      C     mov cx, 12
 10F0  BD 0008		      C     mov bp, 8
 10F3  B0 04		      C     mov al, PAL_PANEL2
 10F5  E8 F8C5		      C     call fill_rect
 10F8  59		      C     pop cx
 10F9  5A		      C     pop dx
 10FA  5B		      C     pop bx
 10FB  33 C0		      C     xor ax, ax
 10FD  2E: A0 1398 R	      C     mov al, [shield_count]
 1101  3B F8		      C     cmp di, ax
 1103  73 23		      C     jae shield_meter_next
 1105  53		      C     push bx
 1106  52		      C     push dx
 1107  B9 000C		      C     mov cx, 12
 110A  BD 0008		      C     mov bp, 8
 110D  2E: 80 3E 1398 R	      C     cmp byte ptr [shield_count], 1
       01
 1113  75 0C		      C     jne shield_meter_safe
 1115  2E: F6 06 13A6 R	      C     test byte ptr [anim_phase], 1
       01
 111B  74 04		      C     jz shield_meter_safe
 111D  B0 07		      C     mov al, PAL_WHITE
 111F  EB 02		      C     jmp shield_meter_color_ready
			      C 
 1121			      C shield_meter_safe:
 1121  B0 06		      C     mov al, PAL_CYAN2
			      C 
 1123			      C shield_meter_color_ready:
 1123  E8 F897		      C     call fill_rect
 1126  5A		      C     pop dx
 1127  5B		      C     pop bx
			      C 
 1128			      C shield_meter_next:
 1128  83 C2 0C		      C     add dx, 12
 112B  47		      C     inc di
 112C  E2 BC		      C     loop shield_meter_loop
 112E  C3		      C     ret
			      C 
 112F			      C draw_pulse_meter:
 112F  BB 0102		      C     mov bx, 258
 1132  BA 0064		      C     mov dx, 100
 1135  B9 0005		      C     mov cx, 5
 1138  33 FF		      C     xor di, di
			      C 
 113A			      C pulse_meter_loop:
 113A  53		      C     push bx
 113B  52		      C     push dx
 113C  51		      C     push cx
 113D  B9 000C		      C     mov cx, 12
 1140  BD 0008		      C     mov bp, 8
 1143  B0 04		      C     mov al, PAL_PANEL2
 1145  E8 F875		      C     call fill_rect
 1148  59		      C     pop cx
 1149  5A		      C     pop dx
 114A  5B		      C     pop bx
 114B  33 C0		      C     xor ax, ax
 114D  2E: A0 1399 R	      C     mov al, [pulse_count]
 1151  3B F8		      C     cmp di, ax
 1153  73 0F		      C     jae pulse_meter_next
 1155  53		      C     push bx
 1156  52		      C     push dx
 1157  B9 000C		      C     mov cx, 12
 115A  BD 0008		      C     mov bp, 8
 115D  B0 08		      C     mov al, PAL_AMBER
 115F  E8 F85B		      C     call fill_rect
 1162  5A		      C     pop dx
 1163  5B		      C     pop bx
			      C 
 1164			      C pulse_meter_next:
 1164  83 C2 0C		      C     add dx, 12
 1167  47		      C     inc di
 1168  E2 D0		      C     loop pulse_meter_loop
 116A  C3		      C     ret
			      C 
 116B			      C draw_gate_meter:
 116B  BB 0102		      C     mov bx, 258
 116E  BA 008E		      C     mov dx, 142
 1171  B9 0028		      C     mov cx, 40
 1174  BD 000A		      C     mov bp, 10
 1177  B0 04		      C     mov al, PAL_PANEL2
 1179  E8 F841		      C     call fill_rect
 117C  2E: 80 3E 139A R	      C     cmp byte ptr [data_count], SHARD_COUNT
       04
 1182  75 1C		      C     jne gate_closed
 1184  BB 0104		      C     mov bx, 260
 1187  BA 0090		      C     mov dx, 144
 118A  B9 0024		      C     mov cx, 36
 118D  BD 0006		      C     mov bp, 6
 1190  2E: F6 06 13A6 R	      C     test byte ptr [anim_phase], 1
       01
 1196  74 04		      C     jz gate_open_base
 1198  B0 07		      C     mov al, PAL_WHITE
 119A  EB 1E		      C     jmp gate_meter_ready
			      C 
 119C			      C gate_open_base:
 119C  B0 11		      C     mov al, PAL_GATE
 119E  EB 1A		      C     jmp gate_meter_ready
			      C 
 11A0			      C gate_closed:
 11A0  BB 0104		      C     mov bx, 260
 11A3  BA 0090		      C     mov dx, 144
 11A6  B9 0024		      C     mov cx, 36
 11A9  BD 0006		      C     mov bp, 6
 11AC  2E: F6 06 13A6 R	      C     test byte ptr [anim_phase], 1
       01
 11B2  74 04		      C     jz gate_closed_base
 11B4  B0 0A		      C     mov al, PAL_RED2
 11B6  EB 02		      C     jmp gate_meter_ready
			      C 
 11B8			      C gate_closed_base:
 11B8  B0 09		      C     mov al, PAL_RED
			      C 
 11BA			      C gate_meter_ready:
 11BA  E8 F800		      C     call fill_rect
 11BD  C3		      C     ret
			      C 
				include game\render\tiles.asm
 11BE			      C render_map:
 11BE  BE 15E5 R	      C     mov si, offset map_tiles
 11C1  32 FF		      C     xor bh, bh
 11C3  B9 000F		      C     mov cx, MAP_H
			      C 
 11C6			      C render_map_row:
 11C6  51		      C     push cx
 11C7  32 DB		      C     xor bl, bl
 11C9  B9 001C		      C     mov cx, MAP_W
			      C 
 11CC			      C render_map_col:
 11CC  53		      C     push bx
 11CD  51		      C     push cx
 11CE  56		      C     push si
 11CF  33 C0		      C     xor ax, ax
 11D1  8A C3		      C     mov al, bl
 11D3  C1 E0 03		      C     shl ax, TILE_SHIFT
 11D6  83 C0 14		      C     add ax, MAP_PIXEL_X
 11D9  8B D8		      C     mov bx, ax
 11DB  33 C0		      C     xor ax, ax
 11DD  8A C7		      C     mov al, bh
 11DF  C1 E0 03		      C     shl ax, TILE_SHIFT
 11E2  83 C0 2C		      C     add ax, MAP_PIXEL_Y
 11E5  8B D0		      C     mov dx, ax
 11E7  8A 04		      C     mov al, [si]
 11E9  E8 000E		      C     call draw_tile
 11EC  5E		      C     pop si
 11ED  59		      C     pop cx
 11EE  5B		      C     pop bx
 11EF  46		      C     inc si
 11F0  FE C3		      C     inc bl
 11F2  E2 D8		      C     loop render_map_col
 11F4  FE C7		      C     inc bh
 11F6  59		      C     pop cx
 11F7  E2 CD		      C     loop render_map_row
 11F9  C3		      C     ret
			      C 
 11FA			      C draw_tile:
 11FA  3C 01		      C     cmp al, TILE_WALL
 11FC  74 15		      C     je draw_wall_tile
 11FE  3C 02		      C     cmp al, TILE_SHARD
 1200  74 18		      C     je draw_shard_tile
 1202  3C 03		      C     cmp al, TILE_EXIT_LOCKED
 1204  74 1E		      C     je draw_locked_tile
 1206  3C 04		      C     cmp al, TILE_EXIT_OPEN
 1208  74 21		      C     je draw_open_tile
 120A  EB 00		      C     jmp draw_floor_tile
			      C 
 120C			      C draw_floor_tile:
 120C  E8 0023		      C     call get_floor_tile_frame
 120F  E8 F9D9		      C     call draw_bitmap8
 1212  C3		      C     ret
			      C 
 1213			      C draw_wall_tile:
 1213  E8 002C		      C     call get_wall_tile_frame
 1216  E8 F9D2		      C     call draw_bitmap8
 1219  C3		      C     ret
			      C 
 121A			      C draw_shard_tile:
 121A  E8 FFEF		      C     call draw_floor_tile
 121D  E8 0052		      C     call get_shard_sprite
 1220  E8 F988		      C     call draw_sprite8
 1223  C3		      C     ret
			      C 
 1224			      C draw_locked_tile:
 1224  E8 002B		      C     call get_locked_tile_frame
 1227  E8 F9C1		      C     call draw_bitmap8
 122A  C3		      C     ret
			      C 
 122B			      C draw_open_tile:
 122B  E8 0034		      C     call get_open_tile_frame
 122E  E8 F9BA		      C     call draw_bitmap8
 1231  C3		      C     ret
			      C 
 1232			      C get_floor_tile_frame:
 1232  2E: F6 06 13A6 R	      C     test byte ptr [anim_phase], 1
       01
 1238  74 04		      C     jz get_floor_tile_a
 123A  BE 1D93 R	      C     mov si, offset tile_floor_b
 123D  C3		      C     ret
 123E			      C get_floor_tile_a:
 123E  BE 1D53 R	      C     mov si, offset tile_floor_a
 1241  C3		      C     ret
			      C 
 1242			      C get_wall_tile_frame:
 1242  2E: F6 06 13A6 R	      C     test byte ptr [anim_phase], 1
       01
 1248  74 04		      C     jz get_wall_tile_a
 124A  BE 1E13 R	      C     mov si, offset tile_wall_b
 124D  C3		      C     ret
 124E			      C get_wall_tile_a:
 124E  BE 1DD3 R	      C     mov si, offset tile_wall_a
 1251  C3		      C     ret
			      C 
 1252			      C get_locked_tile_frame:
 1252  2E: F6 06 13A6 R	      C     test byte ptr [anim_phase], 1
       01
 1258  74 04		      C     jz get_locked_tile_a
 125A  BE 1E93 R	      C     mov si, offset tile_locked_b
 125D  C3		      C     ret
 125E			      C get_locked_tile_a:
 125E  BE 1E53 R	      C     mov si, offset tile_locked_a
 1261  C3		      C     ret
			      C 
 1262			      C get_open_tile_frame:
 1262  2E: F6 06 13A6 R	      C     test byte ptr [anim_phase], 1
       01
 1268  74 04		      C     jz get_open_tile_a
 126A  BE 1F13 R	      C     mov si, offset tile_open_b
 126D  C3		      C     ret
 126E			      C get_open_tile_a:
 126E  BE 1ED3 R	      C     mov si, offset tile_open_a
 1271  C3		      C     ret
			      C 
 1272			      C get_shard_sprite:
 1272  2E: F6 06 13A6 R	      C     test byte ptr [anim_phase], 1
       01
 1278  74 04		      C     jz get_shard_sprite_a
 127A  BE 1B93 R	      C     mov si, offset sprite_shard_b
 127D  C3		      C     ret
 127E			      C get_shard_sprite_a:
 127E  BE 1B53 R	      C     mov si, offset sprite_shard_a
 1281  C3		      C     ret
			      C 
 1282			      C get_gate_sprite:
 1282  2E: F6 06 13A6 R	      C     test byte ptr [anim_phase], 1
       01
 1288  74 04		      C     jz get_gate_sprite_a
 128A  BE 1C13 R	      C     mov si, offset sprite_gate_b
 128D  C3		      C     ret
 128E			      C get_gate_sprite_a:
 128E  BE 1BD3 R	      C     mov si, offset sprite_gate_a
 1291  C3		      C     ret
			      C 
				include game\render\entities.asm
 1292			      C get_enemy_sprite:
 1292  2E: F6 06 13A6 R	      C     test byte ptr [anim_phase], 1
       01
 1298  74 04		      C     jz get_enemy_sprite_a
 129A  BE 1B13 R	      C     mov si, offset sprite_enemy_b
 129D  C3		      C     ret
 129E			      C get_enemy_sprite_a:
 129E  BE 1AD3 R	      C     mov si, offset sprite_enemy_a
 12A1  C3		      C     ret
			      C 
 12A2			      C get_player_sprite:
 12A2  2E: F6 06 13A6 R	      C     test byte ptr [anim_phase], 1
       01
 12A8  74 04		      C     jz get_player_sprite_a
 12AA  BE 1A93 R	      C     mov si, offset sprite_player_b
 12AD  C3		      C     ret
 12AE			      C get_player_sprite_a:
 12AE  BE 1A53 R	      C     mov si, offset sprite_player_a
 12B1  C3		      C     ret
			      C 
 12B2			      C render_enemies:
 12B2  BE 15C7 R	      C     mov si, offset enemies
 12B5  B9 000A		      C     mov cx, MAX_ENEMIES
			      C 
 12B8			      C render_enemy_loop:
 12B8  80 3C 00		      C     cmp byte ptr [si + ENEMY_ALIVE], 0
 12BB  74 27		      C     je render_enemy_next
 12BD  33 DB		      C     xor bx, bx
 12BF  8A 5C 01		      C     mov bl, [si + ENEMY_X]
 12C2  C1 E3 03		      C     shl bx, TILE_SHIFT
 12C5  83 C3 14		      C     add bx, MAP_PIXEL_X
 12C8  33 D2		      C     xor dx, dx
 12CA  8A 54 02		      C     mov dl, [si + ENEMY_Y]
 12CD  C1 E2 03		      C     shl dx, TILE_SHIFT
 12D0  83 C2 2C		      C     add dx, MAP_PIXEL_Y
 12D3  2E: F6 06 13A6 R	      C     test byte ptr [anim_phase], 1
       01
 12D9  74 01		      C     jz enemy_bob_ready
 12DB  42		      C     inc dx
 12DC			      C enemy_bob_ready:
 12DC  56		      C     push si
 12DD  E8 FFB2		      C     call get_enemy_sprite
 12E0  E8 F8C8		      C     call draw_sprite8
 12E3  5E		      C     pop si
			      C 
 12E4			      C render_enemy_next:
 12E4  83 C6 03		      C     add si, ENEMY_SIZE
 12E7  E2 CF		      C     loop render_enemy_loop
 12E9  C3		      C     ret
			      C 
 12EA			      C render_player:
 12EA  33 DB		      C     xor bx, bx
 12EC  2E: 8A 1E 139E R	      C     mov bl, [player_x]
 12F1  C1 E3 03		      C     shl bx, TILE_SHIFT
 12F4  83 C3 14		      C     add bx, MAP_PIXEL_X
 12F7  33 D2		      C     xor dx, dx
 12F9  2E: 8A 16 139F R	      C     mov dl, [player_y]
 12FE  C1 E2 03		      C     shl dx, TILE_SHIFT
 1301  83 C2 2C		      C     add dx, MAP_PIXEL_Y
 1304  2E: F6 06 13A6 R	      C     test byte ptr [anim_phase], 1
       01
 130A  74 01		      C     jz player_bob_ready
 130C  4A		      C     dec dx
 130D			      C player_bob_ready:
 130D  E8 FF92		      C     call get_player_sprite
 1310  E8 F898		      C     call draw_sprite8
 1313  C3		      C     ret
			      C 
				include game\render\effects.asm
 1314			      C render_game_effects:
 1314  2E: 80 3E 139C R	      C     cmp byte ptr [message_id], MSG_PULSE
       06
 131A  75 03		      C     jne check_hit_effect
 131C  E8 0026		      C     call draw_pulse_effect
			      C 
 131F			      C check_hit_effect:
 131F  2E: 80 3E 139C R	      C     cmp byte ptr [message_id], MSG_HIT
       04
 1325  75 1D		      C     jne effects_done
 1327  BB 0004		      C     mov bx, 4
 132A  BA 0004		      C     mov dx, 4
 132D  B9 0138		      C     mov cx, 312
 1330  BD 00C0		      C     mov bp, 192
 1333  2E: F6 06 13A6 R	      C     test byte ptr [anim_phase], 1
       01
 1339  74 04		      C     jz hit_effect_base
 133B  B0 0A		      C     mov al, PAL_RED2
 133D  EB 02		      C     jmp hit_effect_ready
			      C 
 133F			      C hit_effect_base:
 133F  B0 09		      C     mov al, PAL_RED
			      C 
 1341			      C hit_effect_ready:
 1341  E8 F620		      C     call draw_rect_outline
			      C 
 1344			      C effects_done:
 1344  C3		      C     ret
			      C 
 1345			      C draw_pulse_effect:
 1345  33 DB		      C     xor bx, bx
 1347  2E: 8A 1E 139E R	      C     mov bl, [player_x]
 134C  C1 E3 03		      C     shl bx, 3
 134F  83 C3 14		      C     add bx, MAP_PIXEL_X
 1352  83 EB 04		      C     sub bx, 4
 1355  33 D2		      C     xor dx, dx
 1357  2E: 8A 16 139F R	      C     mov dl, [player_y]
 135C  C1 E2 03		      C     shl dx, 3
 135F  83 C2 2C		      C     add dx, MAP_PIXEL_Y
 1362  83 EA 04		      C     sub dx, 4
 1365  B9 0010		      C     mov cx, 16
 1368  BD 0010		      C     mov bp, 16
 136B  2E: F6 06 13A6 R	      C     test byte ptr [anim_phase], 1
       01
 1371  74 04		      C     jz pulse_effect_base
 1373  B0 07		      C     mov al, PAL_WHITE
 1375  EB 02		      C     jmp pulse_effect_ready
			      C 
 1377			      C pulse_effect_base:
 1377  B0 06		      C     mov al, PAL_CYAN2
			      C 
 1379			      C pulse_effect_ready:
 1379  E8 F5E8		      C     call draw_rect_outline
 137C  2E: F6 06 13A6 R	      C     test byte ptr [anim_phase], 1
       01
 1382  74 11		      C     jz pulse_effect_done
 1384  83 C3 02		      C     add bx, 2
 1387  83 C2 02		      C     add dx, 2
 138A  B9 000C		      C     mov cx, 12
 138D  BD 000C		      C     mov bp, 12
 1390  B0 05		      C     mov al, PAL_CYAN
 1392  E8 F5CF		      C     call draw_rect_outline
			      C 
 1395			      C pulse_effect_done:
 1395  C3		      C     ret
			      C 
				include game\state.asm
			      C ; Core run state. Most symbols are referenced directly, so only the documented
			      C ; adjacency assumptions below matter to the runtime.
 1396 00		      C game_state   db STATE_TITLE
 1397 01		      C sector_num   db 1
 1398 05		      C shield_count db START_SHIELDS
 1399 03		      C pulse_count  db START_PULSES
 139A 00		      C data_count   db 0
 139B 00		      C kill_count   db 0
 139C 00		      C message_id   db MSG_SECTOR
 139D 00		      C action_taken db 0
 139E 02		      C player_x     db START_X
 139F 0D		      C player_y     db START_Y
 13A0 19		      C exit_x       db EXIT_COL
 13A1 01		      C exit_y       db EXIT_ROW
 13A2 ACE1		      C rng_state    dw 0ACE1h
 13A4 0000		      C last_tick    dw 0
 13A6 00		      C anim_phase   db 0
 13A7 00		      C splash_ticks db 0
 13A8 00		      C key_extended db 0
 13A9 00		      C any_key_pending db 0
 13AA 00		      C input_event_count db 0
 13AB 00		      C input_last_code db 0
 13AC 00		      C input_check_count db 0
 13AD 00		      C input_poll_count db 0
 13AE 00		      C input_last_polled db 0
 13AF 00		      C pressed_enter db 0
 13B0 00		      C pressed_w db 0
 13B1 00		      C pressed_a db 0
 13B2 00		      C pressed_s db 0
 13B3 00		      C pressed_d db 0
 13B4 00		      C pressed_c db 0
 13B5 00		      C pressed_up db 0
 13B6 00		      C pressed_left db 0
 13B7 00		      C pressed_right db 0
 13B8 00		      C pressed_down db 0
			      C ; key_down and key_pressed must stay adjacent because reset_keyboard_state
			      C ; clears one contiguous KEY_STATE_REGION_BYTES block starting here.
 13B9  0100 [		      C key_down db KEY_STATE_TABLE_BYTES dup (0)
        00
       ]
			      C ; Reserved for future/diagnostic per-scan bookkeeping.
 14B9  0100 [		      C key_pressed db KEY_STATE_TABLE_BYTES dup (0)
        00
       ]
			      C 
 15B9 0000		      C text_cursor_x  dw 0
 15BB 0000		      C text_cursor_y  dw 0
 15BD 0000		      C glyph_base_x   dw 0
 15BF 0000		      C glyph_base_y   dw 0
 15C1 0000		      C rect_w         dw 0
 15C3 0000		      C rect_h         dw 0
 15C5 00		      C text_color     db 0
 15C6 00		      C glyph_row_bits db 0
			      C 
			      C ; Enemy slot layout: [alive, x, y].
 15C7  001E [		      C enemies db MAX_ENEMIES * ENEMY_SIZE dup (0)
        00
       ]
 15E5  01A4 [		      C map_tiles db MAP_SIZE dup (0)
        00
       ]
			      C 
			      C ; map_index depends on these row bases matching MAP_W exactly.
 1789 0000 001C 0038 0054     C map_row_offsets dw 0, 28, 56, 84, 112, 140, 168, 196, 224, 252, 280, 308, 336, 364, 392
       0070 008C 00A8
       00C4 00E0 00FC
       0118 0134 0150
       016C 0188
			      C 
 17A7 1814 R 1838 R 1855 R    C message_table dw offset text_msg_sector, offset text_msg_block, offset text_msg_shard, offset text_msg_gate
       1864 R
 17AF  1881 R 189A R 18A9 R   C               dw offset text_msg_hit, offset text_msg_kill, offset text_msg_pulse, offset text_msg_nopulse
       18B8 R
			      C 
			      C ; sector_num is 1-based; load_sector indexes this table with sector_num - 1.
 17B7 20F3 R 2297 R 243B R    C template_table dw offset sector1_map, offset sector2_map, offset sector3_map
			      C 
 17BD 43 59 42 45 52 53	      C hud_title     db 'CYBERSTORM', 0
       54 4F 52 4D 00
 17C8 53 45 43 54 4F 52	      C sector_text   db 'SECTOR', 0
       00
 17CF 44 41 54 41 00	      C data_text     db 'DATA', 0
 17D4 4B 49 4C 4C 53 00	      C kills_text    db 'KILLS', 0
 17DA 53 48 49 45 4C 44	      C shield_text   db 'SHIELD', 0
       00
 17E1 50 55 4C 53 45 00	      C pulse_text    db 'PULSE', 0
 17E7 47 41 54 45 00	      C gate_text     db 'GATE', 0
 17EC 4D 4F 56 45 20 57	      C controls_text db 'MOVE WASD OR ARROWS  C EMP  ENTER RESET', 0
       41 53 44 20 4F 52
       20 41 52 52 4F 57
       53 20 20 43 20 45
       4D 50 20 20 45 4E
       54 45 52 20 52 45
       53 45 54 00
			      C 
 1814 54 41 4B 45 20 41	      C text_msg_sector  db 'TAKE ALL 4 SHARDS TO OPEN THE GATE.', 0
       4C 4C 20 34 20 53
       48 41 52 44 53 20
       54 4F 20 4F 50 45
       4E 20 54 48 45 20
       47 41 54 45 2E 00
 1838 42 4C 41 43 4B 20	      C text_msg_block   db 'BLACK ICE BLOCKS THAT ROUTE.', 0
       49 43 45 20 42 4C
       4F 43 4B 53 20 54
       48 41 54 20 52 4F
       55 54 45 2E 00
 1855 53 48 41 52 44 20	      C text_msg_shard   db 'SHARD SECURED.', 0
       53 45 43 55 52 45
       44 2E 00
 1864 47 41 54 45 20 55	      C text_msg_gate    db 'GATE UNLOCKED. PUSH THROUGH.', 0
       4E 4C 4F 43 4B 45
       44 2E 20 50 55 53
       48 20 54 48 52 4F
       55 47 48 2E 00
 1881 48 55 4E 54 45 52	      C text_msg_hit     db 'HUNTER HIT. SHIELD LOST.', 0
       20 48 49 54 2E 20
       53 48 49 45 4C 44
       20 4C 4F 53 54 2E
       00
 189A 48 55 4E 54 45 52	      C text_msg_kill    db 'HUNTER PURGED.', 0
       20 50 55 52 47 45
       44 2E 00
 18A9 45 4D 50 20 44 45	      C text_msg_pulse   db 'EMP DETONATED.', 0
       54 4F 4E 41 54 45
       44 2E 00
 18B8 4E 4F 20 45 4D 50	      C text_msg_nopulse db 'NO EMP CHARGES LEFT.', 0
       20 43 48 41 52 47
       45 53 20 4C 45 46
       54 2E 00
			      C 
 18CD 42 49 54 52 49 56	      C splash_brand    db 'BITRIVER', 0
       45 52 00
 18D6 53 4F 46 54 57 41	      C splash_subtitle db 'SOFTWARE', 0
       52 45 00
 18DF 42 4F 4F 54 53 54	      C splash_tagline  db 'BOOTSTRAPPING WORLDS FROM BARE METAL.', 0
       52 41 50 50 49 4E
       47 20 57 4F 52 4C
       44 53 20 46 52 4F
       4D 20 42 41 52 45
       20 4D 45 54 41 4C
       2E 00
 1905 45 4E 54 45 52 20	      C splash_skip     db 'ENTER TO RUN  ANY KEY TO SKIP', 0
       54 4F 20 52 55 4E
       20 20 41 4E 59 20
       4B 45 59 20 54 4F
       20 53 4B 49 50 00
			      C 
 1923 43 59 42 45 52 53	      C title_logo    db 'CYBERSTORM', 0
       54 4F 52 4D 00
 192E 4E 4F 20 4F 53 2E	      C title_line_1  db 'NO OS. NO SHELL. JUST THE BREACH.', 0
       20 4E 4F 20 53 48
       45 4C 4C 2E 20 4A
       55 53 54 20 54 48
       45 20 42 52 45 41
       43 48 2E 00
 1950 54 55 52 4E 20 42	      C title_line_2  db 'TURN BASED INFILTRATION IN RAW VGA.', 0
       41 53 45 44 20 49
       4E 46 49 4C 54 52
       41 54 49 4F 4E 20
       49 4E 20 52 41 57
       20 56 47 41 2E 00
 1974 54 41 4B 45 20 34	      C title_line_3  db 'TAKE 4 SHARDS. OPEN THE GATE. REPEAT.', 0
       20 53 48 41 52 44
       53 2E 20 4F 50 45
       4E 20 54 48 45 20
       47 41 54 45 2E 20
       52 45 50 45 41 54
       2E 00
 199A 50 52 45 53 53 20	      C title_line_4  db 'PRESS ANY KEY TO JACK IN.', 0
       41 4E 59 20 4B 45
       59 20 54 4F 20 4A
       41 43 4B 20 49 4E
       2E 00
 19B4 42 4F 4F 54 45 44	      C title_prompt  db 'BOOTED DIRECT TO THE RUN.', 0
       20 44 49 52 45 43
       54 20 54 4F 20 54
       48 45 20 52 55 4E
       2E 00
			      C ; Temporary title-scene diagnostics used while hardening keyboard support.
 19CE 4B 45 59 53 00	      C debug_keys_text db 'KEYS', 0
 19D3 45 4E 54 52 00	      C debug_enter_text db 'ENTR', 0
 19D8 43 48 43 4B 00	      C debug_check_text db 'CHCK', 0
 19DD 50 4F 4C 4C 00	      C debug_poll_text db 'POLL', 0
			      C 
 19E2 56 41 55 4C 54 00	      C win_line_1    db 'VAULT', 0
 19E8 41 4C 4C 20 54 48	      C win_line_2    db 'ALL THREE SECTORS FELL TO THE RUN.', 0
       52 45 45 20 53 45
       43 54 4F 52 53 20
       46 45 4C 4C 20 54
       4F 20 54 48 45 20
       52 55 4E 2E 00
 1A0B 53 45 56 45 52 45	      C lose_line_1   db 'SEVERED', 0
       44 00
 1A13 54 48 45 20 53 54	      C lose_line_2   db 'THE STORM CLOSED BEFORE THE BREACH.', 0
       4F 52 4D 20 43 4C
       4F 53 45 44 20 42
       45 46 4F 52 45 20
       54 48 45 20 42 52
       45 41 43 48 2E 00
 1A37 50 52 45 53 53 20	      C replay_prompt db 'PRESS ANY KEY TO RUN AGAIN.', 0
       41 4E 59 20 4B 45
       59 20 54 4F 20 52
       55 4E 20 41 47 41
       49 4E 2E 00
			      C 
				include game\art.asm
 1A53 00 00 04 04 04 04	      C sprite_player_a db 0,0,PAL_PANEL2,PAL_PANEL2,PAL_PANEL2,PAL_PANEL2,0,0
       00 00
 1A5B  00 04 06 06 06 06      C                 db 0,PAL_PANEL2,PAL_CYAN2,PAL_CYAN2,PAL_CYAN2,PAL_CYAN2,PAL_PANEL2,0
       04 00
 1A63  04 06 06 07 07 06      C                 db PAL_PANEL2,PAL_CYAN2,PAL_CYAN2,PAL_WHITE,PAL_WHITE,PAL_CYAN2,PAL_CYAN2,PAL_PANEL2
       06 04
 1A6B  04 06 04 07 07 04      C                 db PAL_PANEL2,PAL_CYAN2,PAL_PANEL2,PAL_WHITE,PAL_WHITE,PAL_PANEL2,PAL_CYAN2,PAL_PANEL2
       06 04
 1A73  04 05 06 06 06 06      C                 db PAL_PANEL2,PAL_CYAN,PAL_CYAN2,PAL_CYAN2,PAL_CYAN2,PAL_CYAN2,PAL_CYAN,PAL_PANEL2
       05 04
 1A7B  00 04 05 08 08 05      C                 db 0,PAL_PANEL2,PAL_CYAN,PAL_AMBER,PAL_AMBER,PAL_CYAN,PAL_PANEL2,0
       04 00
 1A83  00 05 04 00 00 04      C                 db 0,PAL_CYAN,PAL_PANEL2,0,0,PAL_PANEL2,PAL_CYAN,0
       05 00
 1A8B  05 00 04 00 00 04      C                 db PAL_CYAN,0,PAL_PANEL2,0,0,PAL_PANEL2,0,PAL_CYAN
       00 05
			      C 
 1A93 00 00 04 04 04 04	      C sprite_player_b db 0,0,PAL_PANEL2,PAL_PANEL2,PAL_PANEL2,PAL_PANEL2,0,0
       00 00
 1A9B  00 04 06 06 06 06      C                 db 0,PAL_PANEL2,PAL_CYAN2,PAL_CYAN2,PAL_CYAN2,PAL_CYAN2,PAL_PANEL2,0
       04 00
 1AA3  04 06 06 07 07 06      C                 db PAL_PANEL2,PAL_CYAN2,PAL_CYAN2,PAL_WHITE,PAL_WHITE,PAL_CYAN2,PAL_CYAN2,PAL_PANEL2
       06 04
 1AAB  04 06 04 07 07 04      C                 db PAL_PANEL2,PAL_CYAN2,PAL_PANEL2,PAL_WHITE,PAL_WHITE,PAL_PANEL2,PAL_CYAN2,PAL_PANEL2
       06 04
 1AB3  00 04 06 06 06 06      C                 db 0,PAL_PANEL2,PAL_CYAN2,PAL_CYAN2,PAL_CYAN2,PAL_CYAN2,PAL_PANEL2,0
       04 00
 1ABB  04 05 06 08 08 06      C                 db PAL_PANEL2,PAL_CYAN,PAL_CYAN2,PAL_AMBER,PAL_AMBER,PAL_CYAN2,PAL_CYAN,PAL_PANEL2
       05 04
 1AC3  05 00 04 00 00 04      C                 db PAL_CYAN,0,PAL_PANEL2,0,0,PAL_PANEL2,0,PAL_CYAN
       00 05
 1ACB  00 04 00 00 00 00      C                 db 0,PAL_PANEL2,0,0,0,0,PAL_PANEL2,0
       04 00
			      C 
 1AD3 00 00 04 09 09 04	      C sprite_enemy_a  db 0,0,PAL_PANEL2,PAL_RED,PAL_RED,PAL_PANEL2,0,0
       00 00
 1ADB  00 04 0A 0A 0A 0A      C                 db 0,PAL_PANEL2,PAL_RED2,PAL_RED2,PAL_RED2,PAL_RED2,PAL_PANEL2,0
       04 00
 1AE3  04 0A 09 07 07 09      C                 db PAL_PANEL2,PAL_RED2,PAL_RED,PAL_WHITE,PAL_WHITE,PAL_RED,PAL_RED2,PAL_PANEL2
       0A 04
 1AEB  04 0A 0A 08 08 0A      C                 db PAL_PANEL2,PAL_RED2,PAL_RED2,PAL_AMBER,PAL_AMBER,PAL_RED2,PAL_RED2,PAL_PANEL2
       0A 04
 1AF3  04 09 0A 0A 0A 0A      C                 db PAL_PANEL2,PAL_RED,PAL_RED2,PAL_RED2,PAL_RED2,PAL_RED2,PAL_RED,PAL_PANEL2
       09 04
 1AFB  00 04 09 04 04 09      C                 db 0,PAL_PANEL2,PAL_RED,PAL_PANEL2,PAL_PANEL2,PAL_RED,PAL_PANEL2,0
       04 00
 1B03  09 00 04 00 00 04      C                 db PAL_RED,0,PAL_PANEL2,0,0,PAL_PANEL2,0,PAL_RED
       00 09
 1B0B  00 00 0A 00 00 0A      C                 db 0,0,PAL_RED2,0,0,PAL_RED2,0,0
       00 00
			      C 
 1B13 00 00 04 09 09 04	      C sprite_enemy_b  db 0,0,PAL_PANEL2,PAL_RED,PAL_RED,PAL_PANEL2,0,0
       00 00
 1B1B  00 04 0A 0A 0A 0A      C                 db 0,PAL_PANEL2,PAL_RED2,PAL_RED2,PAL_RED2,PAL_RED2,PAL_PANEL2,0
       04 00
 1B23  04 0A 07 09 09 07      C                 db PAL_PANEL2,PAL_RED2,PAL_WHITE,PAL_RED,PAL_RED,PAL_WHITE,PAL_RED2,PAL_PANEL2
       0A 04
 1B2B  04 0A 0A 08 08 0A      C                 db PAL_PANEL2,PAL_RED2,PAL_RED2,PAL_AMBER,PAL_AMBER,PAL_RED2,PAL_RED2,PAL_PANEL2
       0A 04
 1B33  00 04 0A 0A 0A 0A      C                 db 0,PAL_PANEL2,PAL_RED2,PAL_RED2,PAL_RED2,PAL_RED2,PAL_PANEL2,0
       04 00
 1B3B  04 09 0A 04 04 0A      C                 db PAL_PANEL2,PAL_RED,PAL_RED2,PAL_PANEL2,PAL_PANEL2,PAL_RED2,PAL_RED,PAL_PANEL2
       09 04
 1B43  00 09 00 04 04 00      C                 db 0,PAL_RED,0,PAL_PANEL2,PAL_PANEL2,0,PAL_RED,0
       09 00
 1B4B  0A 00 00 00 00 00      C                 db PAL_RED2,0,0,0,0,0,0,PAL_RED2
       00 0A
			      C 
 1B53 00 00 00 05 00 00	      C sprite_shard_a  db 0,0,0,PAL_CYAN,0,0,0,0
       00 00
 1B5B  00 00 06 07 06 00      C                 db 0,0,PAL_CYAN2,PAL_WHITE,PAL_CYAN2,0,0,0
       00 00
 1B63  00 06 07 08 07 06      C                 db 0,PAL_CYAN2,PAL_WHITE,PAL_AMBER,PAL_WHITE,PAL_CYAN2,0,0
       00 00
 1B6B  06 07 08 08 08 07      C                 db PAL_CYAN2,PAL_WHITE,PAL_AMBER,PAL_AMBER,PAL_AMBER,PAL_WHITE,PAL_CYAN2,0
       06 00
 1B73  00 06 07 08 07 06      C                 db 0,PAL_CYAN2,PAL_WHITE,PAL_AMBER,PAL_WHITE,PAL_CYAN2,0,0
       00 00
 1B7B  00 00 06 07 06 00      C                 db 0,0,PAL_CYAN2,PAL_WHITE,PAL_CYAN2,0,0,0
       00 00
 1B83  00 00 00 05 00 00      C                 db 0,0,0,PAL_CYAN,0,0,0,0
       00 00
 1B8B  00 00 00 00 00 00      C                 db 0,0,0,0,0,0,0,0
       00 00
			      C 
 1B93 00 00 00 00 07 00	      C sprite_shard_b  db 0,0,0,0,PAL_WHITE,0,0,0
       00 00
 1B9B  00 00 00 06 07 06      C                 db 0,0,0,PAL_CYAN2,PAL_WHITE,PAL_CYAN2,0,0
       00 00
 1BA3  00 00 06 07 08 07      C                 db 0,0,PAL_CYAN2,PAL_WHITE,PAL_AMBER,PAL_WHITE,PAL_CYAN2,0
       06 00
 1BAB  00 06 07 08 07 06      C                 db 0,PAL_CYAN2,PAL_WHITE,PAL_AMBER,PAL_WHITE,PAL_CYAN2,0,0
       00 00
 1BB3  00 00 06 07 08 07      C                 db 0,0,PAL_CYAN2,PAL_WHITE,PAL_AMBER,PAL_WHITE,0,0
       00 00
 1BBB  00 00 00 06 07 00      C                 db 0,0,0,PAL_CYAN2,PAL_WHITE,0,0,0
       00 00
 1BC3  00 00 00 00 05 00      C                 db 0,0,0,0,PAL_CYAN,0,0,0
       00 00
 1BCB  00 00 00 00 00 00      C                 db 0,0,0,0,0,0,0,0
       00 00
			      C 
 1BD3 00 00 04 11 11 04	      C sprite_gate_a   db 0,0,PAL_PANEL2,PAL_GATE,PAL_GATE,PAL_PANEL2,0,0
       00 00
 1BDB  00 04 11 06 06 11      C                 db 0,PAL_PANEL2,PAL_GATE,PAL_CYAN2,PAL_CYAN2,PAL_GATE,PAL_PANEL2,0
       04 00
 1BE3  04 11 06 07 07 06      C                 db PAL_PANEL2,PAL_GATE,PAL_CYAN2,PAL_WHITE,PAL_WHITE,PAL_CYAN2,PAL_GATE,PAL_PANEL2
       11 04
 1BEB  11 06 07 11 11 07      C                 db PAL_GATE,PAL_CYAN2,PAL_WHITE,PAL_GATE,PAL_GATE,PAL_WHITE,PAL_CYAN2,PAL_GATE
       06 11
 1BF3  04 11 06 07 07 06      C                 db PAL_PANEL2,PAL_GATE,PAL_CYAN2,PAL_WHITE,PAL_WHITE,PAL_CYAN2,PAL_GATE,PAL_PANEL2
       11 04
 1BFB  00 04 11 06 06 11      C                 db 0,PAL_PANEL2,PAL_GATE,PAL_CYAN2,PAL_CYAN2,PAL_GATE,PAL_PANEL2,0
       04 00
 1C03  00 00 04 11 11 04      C                 db 0,0,PAL_PANEL2,PAL_GATE,PAL_GATE,PAL_PANEL2,0,0
       00 00
 1C0B  00 00 00 00 00 00      C                 db 0,0,0,0,0,0,0,0
       00 00
			      C 
 1C13 00 00 00 04 04 00	      C sprite_gate_b   db 0,0,0,PAL_PANEL2,PAL_PANEL2,0,0,0
       00 00
 1C1B  00 00 04 11 11 04      C                 db 0,0,PAL_PANEL2,PAL_GATE,PAL_GATE,PAL_PANEL2,0,0
       00 00
 1C23  00 04 11 07 07 11      C                 db 0,PAL_PANEL2,PAL_GATE,PAL_WHITE,PAL_WHITE,PAL_GATE,PAL_PANEL2,0
       04 00
 1C2B  04 11 07 06 06 07      C                 db PAL_PANEL2,PAL_GATE,PAL_WHITE,PAL_CYAN2,PAL_CYAN2,PAL_WHITE,PAL_GATE,PAL_PANEL2
       11 04
 1C33  00 04 11 07 07 11      C                 db 0,PAL_PANEL2,PAL_GATE,PAL_WHITE,PAL_WHITE,PAL_GATE,PAL_PANEL2,0
       04 00
 1C3B  00 00 04 11 11 04      C                 db 0,0,PAL_PANEL2,PAL_GATE,PAL_GATE,PAL_PANEL2,0,0
       00 00
 1C43  00 00 00 04 04 00      C                 db 0,0,0,PAL_PANEL2,PAL_PANEL2,0,0,0
       00 00
 1C4B  00 00 00 00 00 00      C                 db 0,0,0,0,0,0,0,0
       00 00
			      C 
 1C53 00 00 00 00 00 00	      C sprite_bitriver_mark db 0,0,0,0,0,0,0,0,0,0,0,0,0,0,0,0
       00 00 00 00 00 00
       00 00 00 00
 1C63  00 00 00 00 05 05      C                     db 0,0,0,0,PAL_CYAN,PAL_CYAN,PAL_CYAN2,PAL_CYAN2,PAL_CYAN2,PAL_CYAN2,PAL_CYAN,PAL_CYAN,0,0,0,0
       06 06 06 06 05 05
       00 00 00 00
 1C73  00 00 00 05 04 04      C                     db 0,0,0,PAL_CYAN,PAL_PANEL2,PAL_PANEL2,PAL_PANEL2,PAL_PANEL2,PAL_PANEL2,PAL_PANEL2,PAL_PANEL2,PAL_PANEL2,PAL_PANEL2,PAL_CYAN,0,0
       04 04 04 04 04 04
       04 05 00 00
 1C83  00 00 05 04 11 11      C                     db 0,0,PAL_CYAN,PAL_PANEL2,PAL_GATE,PAL_GATE,PAL_GATE,PAL_GATE,PAL_PANEL2,PAL_PANEL2,PAL_AMBER,PAL_AMBER,PAL_PANEL2,PAL_CYAN,0,0
       11 11 04 04 08 08
       04 05 00 00
 1C93  00 00 06 04 07 07      C                     db 0,0,PAL_CYAN2,PAL_PANEL2,PAL_WHITE,PAL_WHITE,PAL_GATE,PAL_GATE,PAL_PANEL2,PAL_PANEL2,PAL_AMBER,PAL_AMBER,PAL_PANEL2,PAL_CYAN2,0,0
       11 11 04 04 08 08
       04 06 00 00
 1CA3  00 00 06 04 04 07      C                     db 0,0,PAL_CYAN2,PAL_PANEL2,PAL_PANEL2,PAL_WHITE,PAL_WHITE,PAL_GATE,PAL_GATE,PAL_PANEL2,PAL_PANEL2,PAL_PANEL2,PAL_PANEL2,PAL_CYAN2,0,0
       07 11 11 04 04 04
       04 06 00 00
 1CB3  00 00 06 04 04 04      C                     db 0,0,PAL_CYAN2,PAL_PANEL2,PAL_PANEL2,PAL_PANEL2,PAL_WHITE,PAL_WHITE,PAL_GATE,PAL_GATE,PAL_PANEL2,PAL_PANEL2,PAL_PANEL2,PAL_CYAN2,0,0
       07 07 11 11 04 04
       04 06 00 00
 1CC3  00 00 06 04 04 04      C                     db 0,0,PAL_CYAN2,PAL_PANEL2,PAL_PANEL2,PAL_PANEL2,PAL_PANEL2,PAL_WHITE,PAL_WHITE,PAL_GATE,PAL_GATE,PAL_PANEL2,PAL_PANEL2,PAL_CYAN2,0,0
       04 07 07 11 11 04
       04 06 00 00
 1CD3  00 00 06 04 04 11      C                     db 0,0,PAL_CYAN2,PAL_PANEL2,PAL_PANEL2,PAL_GATE,PAL_GATE,PAL_WHITE,PAL_WHITE,PAL_PANEL2,PAL_PANEL2,PAL_PANEL2,PAL_PANEL2,PAL_CYAN2,0,0
       11 07 07 04 04 04
       04 06 00 00
 1CE3  00 00 06 04 11 11      C                     db 0,0,PAL_CYAN2,PAL_PANEL2,PAL_GATE,PAL_GATE,PAL_WHITE,PAL_WHITE,PAL_PANEL2,PAL_PANEL2,PAL_PANEL2,PAL_PANEL2,PAL_PANEL2,PAL_CYAN2,0,0
       07 07 04 04 04 04
       04 06 00 00
 1CF3  00 00 06 04 11 07      C                     db 0,0,PAL_CYAN2,PAL_PANEL2,PAL_GATE,PAL_WHITE,PAL_WHITE,PAL_PANEL2,PAL_PANEL2,PAL_PANEL2,PAL_GATE,PAL_GATE,PAL_PANEL2,PAL_CYAN2,0,0
       07 04 04 04 11 11
       04 06 00 00
 1D03  00 00 05 04 07 07      C                     db 0,0,PAL_CYAN,PAL_PANEL2,PAL_WHITE,PAL_WHITE,PAL_PANEL2,PAL_PANEL2,PAL_PANEL2,PAL_GATE,PAL_GATE,PAL_GATE,PAL_PANEL2,PAL_CYAN,0,0
       04 04 04 11 11 11
       04 05 00 00
 1D13  00 00 00 05 04 04      C                     db 0,0,0,PAL_CYAN,PAL_PANEL2,PAL_PANEL2,PAL_PANEL2,PAL_PANEL2,PAL_PANEL2,PAL_PANEL2,PAL_PANEL2,PAL_PANEL2,PAL_PANEL2,PAL_CYAN,0,0
       04 04 04 04 04 04
       04 05 00 00
 1D23  00 00 00 00 05 05      C                     db 0,0,0,0,PAL_CYAN,PAL_CYAN,PAL_CYAN2,PAL_CYAN2,PAL_CYAN2,PAL_CYAN2,PAL_CYAN,PAL_CYAN,0,0,0,0
       06 06 06 06 05 05
       00 00 00 00
 1D33  00 00 00 00 00 00      C                     db 0,0,0,0,0,0,0,0,0,0,0,0,0,0,0,0
       00 00 00 00 00 00
       00 00 00 00
 1D43  00 00 00 00 00 00      C                     db 0,0,0,0,0,0,0,0,0,0,0,0,0,0,0,0
       00 00 00 00 00 00
       00 00 00 00
			      C 
 1D53 0D 0E 04 0D 0D 0E	      C tile_floor_a db PAL_FLOOR,PAL_FLOOR2,PAL_PANEL2,PAL_FLOOR,PAL_FLOOR,PAL_FLOOR2,PAL_PANEL2,PAL_FLOOR
       04 0D
 1D5B  0E 05 0E 0D 04 0D      C             db PAL_FLOOR2,PAL_CYAN,PAL_FLOOR2,PAL_FLOOR,PAL_PANEL2,PAL_FLOOR,PAL_CYAN,PAL_FLOOR2
       05 0E
 1D63  04 0E 0D 06 0E 04      C             db PAL_PANEL2,PAL_FLOOR2,PAL_FLOOR,PAL_CYAN2,PAL_FLOOR2,PAL_PANEL2,PAL_FLOOR,PAL_FLOOR
       0D 0D
 1D6B  0D 04 05 0E 0D 06      C             db PAL_FLOOR,PAL_PANEL2,PAL_CYAN,PAL_FLOOR2,PAL_FLOOR,PAL_CYAN2,PAL_FLOOR2,PAL_PANEL2
       0E 04
 1D73  0D 0D 04 0D 05 0E      C             db PAL_FLOOR,PAL_FLOOR,PAL_PANEL2,PAL_FLOOR,PAL_CYAN,PAL_FLOOR2,PAL_PANEL2,PAL_FLOOR
       04 0D
 1D7B  0E 06 0D 04 0E 0D      C             db PAL_FLOOR2,PAL_CYAN2,PAL_FLOOR,PAL_PANEL2,PAL_FLOOR2,PAL_FLOOR,PAL_CYAN,PAL_FLOOR2
       05 0E
 1D83  04 0D 0E 05 04 0D      C             db PAL_PANEL2,PAL_FLOOR,PAL_FLOOR2,PAL_CYAN,PAL_PANEL2,PAL_FLOOR,PAL_FLOOR2,PAL_PANEL2
       0E 04
 1D8B  0D 04 0D 0E 0D 04      C             db PAL_FLOOR,PAL_PANEL2,PAL_FLOOR,PAL_FLOOR2,PAL_FLOOR,PAL_PANEL2,PAL_CYAN2,PAL_FLOOR
       06 0D
			      C 
 1D93 0D 04 0E 0D 0E 04	      C tile_floor_b db PAL_FLOOR,PAL_PANEL2,PAL_FLOOR2,PAL_FLOOR,PAL_FLOOR2,PAL_PANEL2,PAL_FLOOR,PAL_FLOOR
       0D 0D
 1D9B  04 0E 06 0D 0D 05      C             db PAL_PANEL2,PAL_FLOOR2,PAL_CYAN2,PAL_FLOOR,PAL_FLOOR,PAL_CYAN,PAL_FLOOR2,PAL_PANEL2
       0E 04
 1DA3  0E 05 0D 04 06 0E      C             db PAL_FLOOR2,PAL_CYAN,PAL_FLOOR,PAL_PANEL2,PAL_CYAN2,PAL_FLOOR2,PAL_PANEL2,PAL_FLOOR
       04 0D
 1DAB  0D 0E 04 05 0E 0D      C             db PAL_FLOOR,PAL_FLOOR2,PAL_PANEL2,PAL_CYAN,PAL_FLOOR2,PAL_FLOOR,PAL_CYAN2,PAL_FLOOR2
       06 0E
 1DB3  0E 04 0D 0E 06 04      C             db PAL_FLOOR2,PAL_PANEL2,PAL_FLOOR,PAL_FLOOR2,PAL_CYAN2,PAL_PANEL2,PAL_FLOOR,PAL_FLOOR
       0D 0D
 1DBB  04 05 0E 0D 04 06      C             db PAL_PANEL2,PAL_CYAN,PAL_FLOOR2,PAL_FLOOR,PAL_PANEL2,PAL_CYAN2,PAL_FLOOR2,PAL_PANEL2
       0E 04
 1DC3  0D 0E 04 0D 05 0E      C             db PAL_FLOOR,PAL_FLOOR2,PAL_PANEL2,PAL_FLOOR,PAL_CYAN,PAL_FLOOR2,PAL_PANEL2,PAL_FLOOR
       04 0D
 1DCB  0E 04 06 0D 0E 0D      C             db PAL_FLOOR2,PAL_PANEL2,PAL_CYAN2,PAL_FLOOR,PAL_FLOOR2,PAL_FLOOR,PAL_PANEL2,PAL_FLOOR2
       04 0E
			      C 
 1DD3 0C 0C 0C 0C 0C 0C	      C tile_wall_a db PAL_WALL2,PAL_WALL2,PAL_WALL2,PAL_WALL2,PAL_WALL2,PAL_WALL2,PAL_WALL2,PAL_WALL2
       0C 0C
 1DDB  0C 0B 04 0B 0B 04      C            db PAL_WALL2,PAL_WALL,PAL_PANEL2,PAL_WALL,PAL_WALL,PAL_PANEL2,PAL_WALL,PAL_WALL2
       0B 0C
 1DE3  0C 04 0C 05 04 0C      C            db PAL_WALL2,PAL_PANEL2,PAL_WALL2,PAL_CYAN,PAL_PANEL2,PAL_WALL2,PAL_PANEL2,PAL_WALL2
       04 0C
 1DEB  0C 0B 04 0C 0B 04      C            db PAL_WALL2,PAL_WALL,PAL_PANEL2,PAL_WALL2,PAL_WALL,PAL_PANEL2,PAL_CYAN2,PAL_WALL2
       06 0C
 1DF3  0C 0C 0B 04 0C 0B      C            db PAL_WALL2,PAL_WALL2,PAL_WALL,PAL_PANEL2,PAL_WALL2,PAL_WALL,PAL_PANEL2,PAL_WALL2
       04 0C
 1DFB  0C 04 06 0B 04 0C      C            db PAL_WALL2,PAL_PANEL2,PAL_CYAN2,PAL_WALL,PAL_PANEL2,PAL_WALL2,PAL_WALL,PAL_WALL2
       0B 0C
 1E03  0C 0B 04 0C 05 04      C            db PAL_WALL2,PAL_WALL,PAL_PANEL2,PAL_WALL2,PAL_CYAN,PAL_PANEL2,PAL_WALL,PAL_WALL2
       0B 0C
 1E0B  0C 0C 0C 0C 0C 0C      C            db PAL_WALL2,PAL_WALL2,PAL_WALL2,PAL_WALL2,PAL_WALL2,PAL_WALL2,PAL_WALL2,PAL_WALL2
       0C 0C
			      C 
 1E13 0C 0C 0C 0C 0C 0C	      C tile_wall_b db PAL_WALL2,PAL_WALL2,PAL_WALL2,PAL_WALL2,PAL_WALL2,PAL_WALL2,PAL_WALL2,PAL_WALL2
       0C 0C
 1E1B  0C 0B 04 0B 06 04      C            db PAL_WALL2,PAL_WALL,PAL_PANEL2,PAL_WALL,PAL_CYAN2,PAL_PANEL2,PAL_WALL,PAL_WALL2
       0B 0C
 1E23  0C 04 0C 04 0B 05      C            db PAL_WALL2,PAL_PANEL2,PAL_WALL2,PAL_PANEL2,PAL_WALL,PAL_CYAN,PAL_PANEL2,PAL_WALL2
       04 0C
 1E2B  0C 0B 05 0C 04 0B      C            db PAL_WALL2,PAL_WALL,PAL_CYAN,PAL_WALL2,PAL_PANEL2,PAL_WALL,PAL_PANEL2,PAL_WALL2
       04 0C
 1E33  0C 04 0B 06 0C 04      C            db PAL_WALL2,PAL_PANEL2,PAL_WALL,PAL_CYAN2,PAL_WALL2,PAL_PANEL2,PAL_WALL,PAL_WALL2
       0B 0C
 1E3B  0C 0B 04 0B 04 05      C            db PAL_WALL2,PAL_WALL,PAL_PANEL2,PAL_WALL,PAL_PANEL2,PAL_CYAN,PAL_WALL2,PAL_WALL2
       0C 0C
 1E43  0C 04 06 04 0B 04      C            db PAL_WALL2,PAL_PANEL2,PAL_CYAN2,PAL_PANEL2,PAL_WALL,PAL_PANEL2,PAL_WALL,PAL_WALL2
       0B 0C
 1E4B  0C 0C 0C 0C 0C 0C      C            db PAL_WALL2,PAL_WALL2,PAL_WALL2,PAL_WALL2,PAL_WALL2,PAL_WALL2,PAL_WALL2,PAL_WALL2
       0C 0C
			      C 
 1E53 04 09 04 0A 0A 04	      C tile_locked_a db PAL_PANEL2,PAL_RED,PAL_PANEL2,PAL_RED2,PAL_RED2,PAL_PANEL2,PAL_RED,PAL_PANEL2
       09 04
 1E5B  09 04 0A 07 07 0A      C              db PAL_RED,PAL_PANEL2,PAL_RED2,PAL_WHITE,PAL_WHITE,PAL_RED2,PAL_PANEL2,PAL_RED
       04 09
 1E63  04 0A 04 09 09 04      C              db PAL_PANEL2,PAL_RED2,PAL_PANEL2,PAL_RED,PAL_RED,PAL_PANEL2,PAL_RED2,PAL_PANEL2
       0A 04
 1E6B  0A 07 09 04 04 09      C              db PAL_RED2,PAL_WHITE,PAL_RED,PAL_PANEL2,PAL_PANEL2,PAL_RED,PAL_WHITE,PAL_RED2
       07 0A
 1E73  0A 07 09 04 04 09      C              db PAL_RED2,PAL_WHITE,PAL_RED,PAL_PANEL2,PAL_PANEL2,PAL_RED,PAL_WHITE,PAL_RED2
       07 0A
 1E7B  04 0A 04 09 09 04      C              db PAL_PANEL2,PAL_RED2,PAL_PANEL2,PAL_RED,PAL_RED,PAL_PANEL2,PAL_RED2,PAL_PANEL2
       0A 04
 1E83  09 04 0A 0A 0A 0A      C              db PAL_RED,PAL_PANEL2,PAL_RED2,PAL_RED2,PAL_RED2,PAL_RED2,PAL_PANEL2,PAL_RED
       04 09
 1E8B  04 09 04 0A 0A 04      C              db PAL_PANEL2,PAL_RED,PAL_PANEL2,PAL_RED2,PAL_RED2,PAL_PANEL2,PAL_RED,PAL_PANEL2
       09 04
			      C 
 1E93 04 0A 04 09 09 04	      C tile_locked_b db PAL_PANEL2,PAL_RED2,PAL_PANEL2,PAL_RED,PAL_RED,PAL_PANEL2,PAL_RED2,PAL_PANEL2
       0A 04
 1E9B  0A 04 09 07 07 09      C              db PAL_RED2,PAL_PANEL2,PAL_RED,PAL_WHITE,PAL_WHITE,PAL_RED,PAL_PANEL2,PAL_RED2
       04 0A
 1EA3  04 09 04 0A 0A 04      C              db PAL_PANEL2,PAL_RED,PAL_PANEL2,PAL_RED2,PAL_RED2,PAL_PANEL2,PAL_RED,PAL_PANEL2
       09 04
 1EAB  09 07 0A 04 04 0A      C              db PAL_RED,PAL_WHITE,PAL_RED2,PAL_PANEL2,PAL_PANEL2,PAL_RED2,PAL_WHITE,PAL_RED
       07 09
 1EB3  09 07 0A 04 04 0A      C              db PAL_RED,PAL_WHITE,PAL_RED2,PAL_PANEL2,PAL_PANEL2,PAL_RED2,PAL_WHITE,PAL_RED
       07 09
 1EBB  04 09 04 0A 0A 04      C              db PAL_PANEL2,PAL_RED,PAL_PANEL2,PAL_RED2,PAL_RED2,PAL_PANEL2,PAL_RED,PAL_PANEL2
       09 04
 1EC3  0A 04 09 09 09 09      C              db PAL_RED2,PAL_PANEL2,PAL_RED,PAL_RED,PAL_RED,PAL_RED,PAL_PANEL2,PAL_RED2
       04 0A
 1ECB  04 0A 04 09 09 04      C              db PAL_PANEL2,PAL_RED2,PAL_PANEL2,PAL_RED,PAL_RED,PAL_PANEL2,PAL_RED2,PAL_PANEL2
       0A 04
			      C 
 1ED3 04 11 04 06 06 04	      C tile_open_a db PAL_PANEL2,PAL_GATE,PAL_PANEL2,PAL_CYAN2,PAL_CYAN2,PAL_PANEL2,PAL_GATE,PAL_PANEL2
       11 04
 1EDB  11 04 06 07 07 06      C            db PAL_GATE,PAL_PANEL2,PAL_CYAN2,PAL_WHITE,PAL_WHITE,PAL_CYAN2,PAL_PANEL2,PAL_GATE
       04 11
 1EE3  04 06 04 11 11 04      C            db PAL_PANEL2,PAL_CYAN2,PAL_PANEL2,PAL_GATE,PAL_GATE,PAL_PANEL2,PAL_CYAN2,PAL_PANEL2
       06 04
 1EEB  06 07 11 04 04 11      C            db PAL_CYAN2,PAL_WHITE,PAL_GATE,PAL_PANEL2,PAL_PANEL2,PAL_GATE,PAL_WHITE,PAL_CYAN2
       07 06
 1EF3  06 07 11 04 04 11      C            db PAL_CYAN2,PAL_WHITE,PAL_GATE,PAL_PANEL2,PAL_PANEL2,PAL_GATE,PAL_WHITE,PAL_CYAN2
       07 06
 1EFB  04 06 04 11 11 04      C            db PAL_PANEL2,PAL_CYAN2,PAL_PANEL2,PAL_GATE,PAL_GATE,PAL_PANEL2,PAL_CYAN2,PAL_PANEL2
       06 04
 1F03  11 04 06 06 06 06      C            db PAL_GATE,PAL_PANEL2,PAL_CYAN2,PAL_CYAN2,PAL_CYAN2,PAL_CYAN2,PAL_PANEL2,PAL_GATE
       04 11
 1F0B  04 11 04 06 06 04      C            db PAL_PANEL2,PAL_GATE,PAL_PANEL2,PAL_CYAN2,PAL_CYAN2,PAL_PANEL2,PAL_GATE,PAL_PANEL2
       11 04
			      C 
 1F13 04 07 04 11 11 04	      C tile_open_b db PAL_PANEL2,PAL_WHITE,PAL_PANEL2,PAL_GATE,PAL_GATE,PAL_PANEL2,PAL_WHITE,PAL_PANEL2
       07 04
 1F1B  07 04 11 06 06 11      C            db PAL_WHITE,PAL_PANEL2,PAL_GATE,PAL_CYAN2,PAL_CYAN2,PAL_GATE,PAL_PANEL2,PAL_WHITE
       04 07
 1F23  04 11 04 07 07 04      C            db PAL_PANEL2,PAL_GATE,PAL_PANEL2,PAL_WHITE,PAL_WHITE,PAL_PANEL2,PAL_GATE,PAL_PANEL2
       11 04
 1F2B  11 06 07 04 04 07      C            db PAL_GATE,PAL_CYAN2,PAL_WHITE,PAL_PANEL2,PAL_PANEL2,PAL_WHITE,PAL_CYAN2,PAL_GATE
       06 11
 1F33  11 06 07 04 04 07      C            db PAL_GATE,PAL_CYAN2,PAL_WHITE,PAL_PANEL2,PAL_PANEL2,PAL_WHITE,PAL_CYAN2,PAL_GATE
       06 11
 1F3B  04 11 04 07 07 04      C            db PAL_PANEL2,PAL_GATE,PAL_PANEL2,PAL_WHITE,PAL_WHITE,PAL_PANEL2,PAL_GATE,PAL_PANEL2
       11 04
 1F43  07 04 11 11 11 11      C            db PAL_WHITE,PAL_PANEL2,PAL_GATE,PAL_GATE,PAL_GATE,PAL_GATE,PAL_PANEL2,PAL_WHITE
       04 07
 1F4B  04 07 04 11 11 04      C            db PAL_PANEL2,PAL_WHITE,PAL_PANEL2,PAL_GATE,PAL_GATE,PAL_PANEL2,PAL_WHITE,PAL_PANEL2
       07 04
			      C 
 = 0010			      C STAR_COUNT equ 16
 1F53 0018 0012 0005	      C starfield  dw 24, 18, PAL_CYAN
 1F59  003E 001C 0007	      C            dw 62, 28, PAL_WHITE
 1F5F  006E 000C 0005	      C            dw 110, 12, PAL_CYAN
 1F65  00B6 0016 0007	      C            dw 182, 22, PAL_WHITE
 1F6B  00EE 0012 0005	      C            dw 238, 18, PAL_CYAN
 1F71  012A 001A 0007	      C            dw 298, 26, PAL_WHITE
 1F77  0024 00B0 0005	      C            dw 36, 176, PAL_CYAN
 1F7D  0058 00BC 0007	      C            dw 88, 188, PAL_WHITE
 1F83  008C 00B6 0005	      C            dw 140, 182, PAL_CYAN
 1F89  00D2 00BE 0007	      C            dw 210, 190, PAL_WHITE
 1F8F  0118 00B2 0005	      C            dw 280, 178, PAL_CYAN
 1F95  0130 0096 0007	      C            dw 304, 150, PAL_WHITE
 1F9B  000E 0062 0005	      C            dw 14, 98, PAL_CYAN
 1FA1  0134 004A 0007	      C            dw 308, 74, PAL_WHITE
 1FA7  011E 0036 0005	      C            dw 286, 54, PAL_CYAN
 1FAD  0008 0090 0007	      C            dw 8, 144, PAL_WHITE
			      C 
 1FB3 00 00 00		      C palette_data db 0,0,0
 1FB6  02 03 08		      C              db 2,3,8
 1FB9  04 07 0E		      C              db 4,7,14
 1FBC  05 0A 12		      C              db 5,10,18
 1FBF  08 0E 16		      C              db 8,14,22
 1FC2  00 24 2A		      C              db 0,36,42
 1FC5  0C 34 3A		      C              db 12,52,58
 1FC8  3F 3F 3F		      C              db 63,63,63
 1FCB  3F 2A 08		      C              db 63,42,8
 1FCE  30 08 08		      C              db 48,8,8
 1FD1  3F 12 12		      C              db 63,18,18
 1FD4  0C 10 16		      C              db 12,16,22
 1FD7  14 1C 26		      C              db 20,28,38
 1FDA  06 0C 10		      C              db 6,12,16
 1FDD  0A 14 18		      C              db 10,20,24
 1FE0  0A 2E 34		      C              db 10,46,52
 1FE3  32 0C 12		      C              db 50,12,18
 1FE6  12 3C 38		      C              db 18,60,56
 1FE9 = 0036		      C PALETTE_BYTES equ ($ - palette_data)
			      C 
 1FE9 0E 11 11 1F 11 11	      C font5x7 db 0Eh,11h,11h,1Fh,11h,11h,11h
       11
 1FF0  1E 11 11 1E 11 11      C         db 1Eh,11h,11h,1Eh,11h,11h,1Eh
       1E
 1FF7  0E 11 10 10 10 11      C         db 0Eh,11h,10h,10h,10h,11h,0Eh
       0E
 1FFE  1E 11 11 11 11 11      C         db 1Eh,11h,11h,11h,11h,11h,1Eh
       1E
 2005  1F 10 10 1E 10 10      C         db 1Fh,10h,10h,1Eh,10h,10h,1Fh
       1F
 200C  1F 10 10 1E 10 10      C         db 1Fh,10h,10h,1Eh,10h,10h,10h
       10
 2013  0E 11 10 17 11 11      C         db 0Eh,11h,10h,17h,11h,11h,0Fh
       0F
 201A  11 11 11 1F 11 11      C         db 11h,11h,11h,1Fh,11h,11h,11h
       11
 2021  1F 04 04 04 04 04      C         db 1Fh,04h,04h,04h,04h,04h,1Fh
       1F
 2028  01 01 01 01 11 11      C         db 01h,01h,01h,01h,11h,11h,0Eh
       0E
 202F  11 12 14 18 14 12      C         db 11h,12h,14h,18h,14h,12h,11h
       11
 2036  10 10 10 10 10 10      C         db 10h,10h,10h,10h,10h,10h,1Fh
       1F
 203D  11 1B 15 15 11 11      C         db 11h,1Bh,15h,15h,11h,11h,11h
       11
 2044  11 19 15 13 11 11      C         db 11h,19h,15h,13h,11h,11h,11h
       11
 204B  0E 11 11 11 11 11      C         db 0Eh,11h,11h,11h,11h,11h,0Eh
       0E
 2052  1E 11 11 1E 10 10      C         db 1Eh,11h,11h,1Eh,10h,10h,10h
       10
 2059  0E 11 11 11 15 12      C         db 0Eh,11h,11h,11h,15h,12h,0Dh
       0D
 2060  1E 11 11 1E 14 12      C         db 1Eh,11h,11h,1Eh,14h,12h,11h
       11
 2067  0F 10 10 0E 01 01      C         db 0Fh,10h,10h,0Eh,01h,01h,1Eh
       1E
 206E  1F 04 04 04 04 04      C         db 1Fh,04h,04h,04h,04h,04h,04h
       04
 2075  11 11 11 11 11 11      C         db 11h,11h,11h,11h,11h,11h,0Eh
       0E
 207C  11 11 11 11 11 0A      C         db 11h,11h,11h,11h,11h,0Ah,04h
       04
 2083  11 11 11 15 15 15      C         db 11h,11h,11h,15h,15h,15h,0Ah
       0A
 208A  11 11 0A 04 0A 11      C         db 11h,11h,0Ah,04h,0Ah,11h,11h
       11
 2091  11 11 0A 04 04 04      C         db 11h,11h,0Ah,04h,04h,04h,04h
       04
 2098  1F 01 02 04 08 10      C         db 1Fh,01h,02h,04h,08h,10h,1Fh
       1F
 209F  0E 11 13 15 19 11      C         db 0Eh,11h,13h,15h,19h,11h,0Eh
       0E
 20A6  04 0C 04 04 04 04      C         db 04h,0Ch,04h,04h,04h,04h,0Eh
       0E
 20AD  0E 11 01 02 04 08      C         db 0Eh,11h,01h,02h,04h,08h,1Fh
       1F
 20B4  1E 01 01 06 01 01      C         db 1Eh,01h,01h,06h,01h,01h,1Eh
       1E
 20BB  02 06 0A 12 1F 02      C         db 02h,06h,0Ah,12h,1Fh,02h,02h
       02
 20C2  1F 10 10 1E 01 01      C         db 1Fh,10h,10h,1Eh,01h,01h,1Eh
       1E
 20C9  06 08 10 1E 11 11      C         db 06h,08h,10h,1Eh,11h,11h,0Eh
       0E
 20D0  1F 01 02 04 08 08      C         db 1Fh,01h,02h,04h,08h,08h,08h
       08
 20D7  0E 11 11 0E 11 11      C         db 0Eh,11h,11h,0Eh,11h,11h,0Eh
       0E
 20DE  0E 11 11 0F 01 02      C         db 0Eh,11h,11h,0Fh,01h,02h,0Ch
       0C
 20E5  00 00 00 00 00 0C      C         db 00h,00h,00h,00h,00h,0Ch,0Ch
       0C
 20EC  00 00 00 00 00 00      C         db 00h,00h,00h,00h,00h,00h,00h
       00
			      C 
				include game\maps.asm
 20F3 23 23 23 23 23 23	      C sector1_map db '############################'
       23 23 23 23 23 23
       23 23 23 23 23 23
       23 23 23 23 23 23
       23 23 23 23
 210F  23 2E 2E 2E 2E 2E      C             db '#..........#...............#'
       2E 2E 2E 2E 2E 23
       2E 2E 2E 2E 2E 2E
       2E 2E 2E 2E 2E 2E
       2E 2E 2E 23
 212B  23 2E 2E 23 23 23      C             db '#..####....#..#####..####..#'
       23 2E 2E 2E 2E 23
       2E 2E 23 23 23 23
       23 2E 2E 23 23 23
       23 2E 2E 23
 2147  23 2E 2E 2E 2E 2E      C             db '#......#...#......#.....#..#'
       2E 23 2E 2E 2E 23
       2E 2E 2E 2E 2E 2E
       23 2E 2E 2E 2E 2E
       23 2E 2E 23
 2163  23 2E 23 23 23 23      C             db '#.####.#...####...#.###.#..#'
       2E 23 2E 2E 2E 23
       23 23 23 2E 2E 2E
       23 2E 23 23 23 2E
       23 2E 2E 23
 217F  23 2E 23 2E 2E 2E      C             db '#.#....#..........#.#...#..#'
       2E 23 2E 2E 2E 2E
       2E 2E 2E 2E 2E 2E
       23 2E 23 2E 2E 2E
       23 2E 2E 23
 219B  23 2E 23 2E 23 23      C             db '#.#.########..#####.#.###..#'
       23 23 23 23 23 23
       2E 2E 23 23 23 23
       23 2E 23 2E 23 23
       23 2E 2E 23
 21B7  23 2E 23 2E 2E 2E      C             db '#.#..................#.....#'
       2E 2E 2E 2E 2E 2E
       2E 2E 2E 2E 2E 2E
       2E 2E 2E 23 2E 2E
       2E 2E 2E 23
 21D3  23 2E 23 2E 23 23      C             db '#.#.######.######.####.##..#'
       23 23 23 23 2E 23
       23 23 23 23 23 2E
       23 23 23 23 2E 23
       23 2E 2E 23
 21EF  23 2E 2E 2E 23 2E      C             db '#...#....#......#......##..#'
       2E 2E 2E 23 2E 2E
       2E 2E 2E 2E 23 2E
       2E 2E 2E 2E 2E 23
       23 2E 2E 23
 220B  23 23 23 2E 23 2E      C             db '###.#.##.####.#.######.##..#'
       23 23 2E 23 23 23
       23 2E 23 2E 23 23
       23 23 23 23 2E 23
       23 2E 2E 23
 2227  23 2E 2E 2E 23 2E      C             db '#...#.##......#.#......##..#'
       23 23 2E 2E 2E 2E
       2E 2E 23 2E 23 2E
       2E 2E 2E 2E 2E 23
       23 2E 2E 23
 2243  23 2E 23 23 23 2E      C             db '#.###.#########.#.########.#'
       23 23 23 23 23 23
       23 23 23 2E 23 2E
       23 23 23 23 23 23
       23 23 2E 23
 225F  23 2E 2E 2E 2E 2E      C             db '#..........................#'
       2E 2E 2E 2E 2E 2E
       2E 2E 2E 2E 2E 2E
       2E 2E 2E 2E 2E 2E
       2E 2E 2E 23
 227B  23 23 23 23 23 23      C             db '############################'
       23 23 23 23 23 23
       23 23 23 23 23 23
       23 23 23 23 23 23
       23 23 23 23
			      C 
 2297 23 23 23 23 23 23	      C sector2_map db '############################'
       23 23 23 23 23 23
       23 23 23 23 23 23
       23 23 23 23 23 23
       23 23 23 23
 22B3  23 2E 2E 2E 2E 2E      C             db '#......#....#.........#....#'
       2E 23 2E 2E 2E 2E
       23 2E 2E 2E 2E 2E
       2E 2E 2E 2E 23 2E
       2E 2E 2E 23
 22CF  23 2E 23 23 23 23      C             db '#.####.#.##.#.######..#....#'
       2E 23 2E 23 23 2E
       23 2E 23 23 23 23
       23 23 2E 2E 23 2E
       2E 2E 2E 23
 22EB  23 2E 23 2E 2E 2E      C             db '#.#....#....#......#..#....#'
       2E 23 2E 2E 2E 2E
       23 2E 2E 2E 2E 2E
       2E 23 2E 2E 23 2E
       2E 2E 2E 23
 2307  23 2E 23 2E 23 23      C             db '#.#.####.########..#.##.##.#'
       23 23 2E 23 23 23
       23 23 23 23 23 2E
       2E 23 2E 23 23 2E
       23 23 2E 23
 2323  23 2E 23 2E 2E 2E      C             db '#.#....#...........#....##.#'
       2E 23 2E 2E 2E 2E
       2E 2E 2E 2E 2E 2E
       2E 23 2E 2E 2E 2E
       23 23 2E 23
 233F  23 2E 23 23 23 23      C             db '#.####.#.###########.####..#'
       2E 23 2E 23 23 23
       23 23 23 23 23 23
       23 23 2E 23 23 23
       23 2E 2E 23
 235B  23 2E 2E 2E 2E 2E      C             db '#......#.....#.............#'
       2E 23 2E 2E 2E 2E
       2E 23 2E 2E 2E 2E
       2E 2E 2E 2E 2E 2E
       2E 2E 2E 23
 2377  23 2E 23 23 23 23      C             db '#.##########.#.###########.#'
       23 23 23 23 23 23
       2E 23 2E 23 23 23
       23 23 23 23 23 23
       23 23 2E 23
 2393  23 2E 23 2E 2E 2E      C             db '#.#..........#.#...........#'
       2E 2E 2E 2E 2E 2E
       2E 23 2E 23 2E 2E
       2E 2E 2E 2E 2E 2E
       2E 2E 2E 23
 23AF  23 2E 23 2E 23 23      C             db '#.#.##########.#.#########.#'
       23 23 23 23 23 23
       23 23 2E 23 2E 23
       23 23 23 23 23 23
       23 23 2E 23
 23CB  23 2E 23 2E 2E 2E      C             db '#.#.............#.......#..#'
       2E 2E 2E 2E 2E 2E
       2E 2E 2E 2E 23 2E
       2E 2E 2E 2E 2E 2E
       23 2E 2E 23
 23E7  23 2E 23 23 23 23      C             db '#.###############.#####.#..#'
       23 23 23 23 23 23
       23 23 23 23 23 2E
       23 23 23 23 23 2E
       23 2E 2E 23
 2403  23 2E 2E 2E 2E 2E      C             db '#..........................#'
       2E 2E 2E 2E 2E 2E
       2E 2E 2E 2E 2E 2E
       2E 2E 2E 2E 2E 2E
       2E 2E 2E 23
 241F  23 23 23 23 23 23      C             db '############################'
       23 23 23 23 23 23
       23 23 23 23 23 23
       23 23 23 23 23 23
       23 23 23 23
			      C 
 243B 23 23 23 23 23 23	      C sector3_map db '############################'
       23 23 23 23 23 23
       23 23 23 23 23 23
       23 23 23 23 23 23
       23 23 23 23
 2457  23 2E 2E 2E 2E 23      C             db '#....#...........#.........#'
       2E 2E 2E 2E 2E 2E
       2E 2E 2E 2E 2E 23
       2E 2E 2E 2E 2E 2E
       2E 2E 2E 23
 2473  23 2E 23 23 2E 23      C             db '#.##.#.#########.#.#######.#'
       2E 23 23 23 23 23
       23 23 23 23 2E 23
       2E 23 23 23 23 23
       23 23 2E 23
 248F  23 2E 2E 2E 2E 23      C             db '#....#.....#.....#.....#...#'
       2E 2E 2E 2E 2E 23
       2E 2E 2E 2E 2E 23
       2E 2E 2E 2E 2E 23
       2E 2E 2E 23
 24AB  23 23 23 23 2E 23      C             db '####.#####.#.#########.#.###'
       23 23 23 23 2E 23
       2E 23 23 23 23 23
       23 23 23 23 2E 23
       2E 23 23 23
 24C7  23 2E 2E 2E 2E 23      C             db '#....#.....#.....#.....#...#'
       2E 2E 2E 2E 2E 23
       2E 2E 2E 2E 2E 23
       2E 2E 2E 2E 2E 23
       2E 2E 2E 23
 24E3  23 2E 23 23 23 23      C             db '#.####.#########.#.#######.#'
       2E 23 23 23 23 23
       23 23 23 23 2E 23
       2E 23 23 23 23 23
       23 23 2E 23
 24FF  23 2E 23 2E 2E 2E      C             db '#.#....#.........#.........#'
       2E 23 2E 2E 2E 2E
       2E 2E 2E 2E 2E 23
       2E 2E 2E 2E 2E 2E
       2E 2E 2E 23
 251B  23 2E 23 2E 23 23      C             db '#.#.####.###############.###'
       23 23 2E 23 23 23
       23 23 23 23 23 23
       23 23 23 23 23 23
       2E 23 23 23
 2537  23 2E 23 2E 2E 2E      C             db '#.#......#.......#.......#.#'
       2E 2E 2E 23 2E 2E
       2E 2E 2E 2E 2E 23
       2E 2E 2E 2E 2E 2E
       2E 23 2E 23
 2553  23 2E 23 23 23 23      C             db '#.######.#.#####.#.#####.#.#'
       23 23 2E 23 2E 23
       23 23 23 23 2E 23
       2E 23 23 23 23 23
       2E 23 2E 23
 256F  23 2E 2E 2E 2E 2E      C             db '#......#.#.....#.#.....#...#'
       2E 23 2E 23 2E 2E
       2E 2E 2E 23 2E 23
       2E 2E 2E 2E 2E 23
       2E 2E 2E 23
 258B  23 2E 23 23 23 23      C             db '#.####.#.#####.#.#####.###.#'
       2E 23 2E 23 23 23
       23 23 2E 23 2E 23
       23 23 23 23 2E 23
       23 23 2E 23
 25A7  23 2E 2E 2E 2E 2E      C             db '#..........................#'
       2E 2E 2E 2E 2E 2E
       2E 2E 2E 2E 2E 2E
       2E 2E 2E 2E 2E 2E
       2E 2E 2E 23
 25C3  23 23 23 23 23 23      C             db '############################'
       23 23 23 23 23 23
       23 23 23 23 23 23
       23 23 23 23 23 23
       23 23 23 23
			      C 

				end start
C:\Users\RhythmicCarnage\Desktop\CyberStorm\src\game.asm(27) : warning A4023:with /coff switch, leading underscore required for start address : start
Microsoft (R) Macro Assembler Version 14.40.33812.0	    03/28/26 11:13:28
C:\Users\RhythmicCarnage\Desktop\CyberStorm\src\game.asm     Symbols 2 - 1




Segments and Groups:

                N a m e                 Size     Length   Align   Combine Class

_DATA  . . . . . . . . . . . . .	16 Bit	 0000	  Word	  Public  'DATA'	
_TEXT  . . . . . . . . . . . . .	16 Bit	 25DF	  Word	  Public  'CODE'	


Symbols:

                N a m e                 Type     Value    Attr

@CodeSize  . . . . . . . . . . .	Number	 0000h	 
@DataSize  . . . . . . . . . . .	Number	 0000h	 
@Interface . . . . . . . . . . .	Number	 0000h	 
@Model . . . . . . . . . . . . .	Number	 0001h	 
@code  . . . . . . . . . . . . .	Text   	 DGROUP
@data  . . . . . . . . . . . . .	Text   	 DGROUP
@fardata?  . . . . . . . . . . .	Text   	 FAR_BSS
@fardata . . . . . . . . . . . .	Text   	 FAR_DATA
@stack . . . . . . . . . . . . .	Text   	 DGROUP
BACKBUFFER_SEG . . . . . . . . .	Number	 9000h	 
ENEMY_ALIVE  . . . . . . . . . .	Number	 0000h	 
ENEMY_SIZE . . . . . . . . . . .	Number	 0003h	 
ENEMY_SPAWN_BASE . . . . . . . .	Number	 0003h	 
ENEMY_SPAWN_STEP . . . . . . . .	Number	 0002h	 
ENEMY_X  . . . . . . . . . . . .	Number	 0001h	 
ENEMY_Y  . . . . . . . . . . . .	Number	 0002h	 
EXIT_COL . . . . . . . . . . . .	Number	 0019h	 
EXIT_ROW . . . . . . . . . . . .	Number	 0001h	 
KEY_ENTER  . . . . . . . . . . .	Number	 000Dh	 
KEY_QUEUE_MASK . . . . . . . . .	Number	 000Fh	 
KEY_QUEUE_SIZE . . . . . . . . .	Number	 0010h	 
KEY_STATE_REGION_BYTES . . . . .	Number	 0200h	 
KEY_STATE_TABLE_BYTES  . . . . .	Number	 0100h	 
MAP_H  . . . . . . . . . . . . .	Number	 000Fh	 
MAP_PIXEL_X  . . . . . . . . . .	Number	 0014h	 
MAP_PIXEL_Y  . . . . . . . . . .	Number	 002Ch	 
MAP_SIZE . . . . . . . . . . . .	Number	 01A4h	 
MAP_W  . . . . . . . . . . . . .	Number	 001Ch	 
MAX_ENEMIES  . . . . . . . . . .	Number	 000Ah	 
MAX_PULSES . . . . . . . . . . .	Number	 0005h	 
MSG_BLOCK  . . . . . . . . . . .	Number	 0001h	 
MSG_GATE . . . . . . . . . . . .	Number	 0003h	 
MSG_HIT  . . . . . . . . . . . .	Number	 0004h	 
MSG_KILL . . . . . . . . . . . .	Number	 0005h	 
MSG_NOPULSE  . . . . . . . . . .	Number	 0007h	 
MSG_PULSE  . . . . . . . . . . .	Number	 0006h	 
MSG_SECTOR . . . . . . . . . . .	Number	 0000h	 
MSG_SHARD  . . . . . . . . . . .	Number	 0002h	 
PALETTE_BYTES  . . . . . . . . .	Number	 0036h	 
PAL_AMBER  . . . . . . . . . . .	Number	 0008h	 
PAL_BG0  . . . . . . . . . . . .	Number	 0001h	 
PAL_BG1  . . . . . . . . . . . .	Number	 0002h	 
PAL_BLACK  . . . . . . . . . . .	Number	 0000h	 
PAL_CYAN2  . . . . . . . . . . .	Number	 0006h	 
PAL_CYAN . . . . . . . . . . . .	Number	 0005h	 
PAL_ENEMY  . . . . . . . . . . .	Number	 0010h	 
PAL_FLOOR2 . . . . . . . . . . .	Number	 000Eh	 
PAL_FLOOR  . . . . . . . . . . .	Number	 000Dh	 
PAL_GATE . . . . . . . . . . . .	Number	 0011h	 
PAL_PANEL2 . . . . . . . . . . .	Number	 0004h	 
PAL_PANEL  . . . . . . . . . . .	Number	 0003h	 
PAL_PLAYER . . . . . . . . . . .	Number	 000Fh	 
PAL_RED2 . . . . . . . . . . . .	Number	 000Ah	 
PAL_RED  . . . . . . . . . . . .	Number	 0009h	 
PAL_WALL2  . . . . . . . . . . .	Number	 000Ch	 
PAL_WALL . . . . . . . . . . . .	Number	 000Bh	 
PAL_WHITE  . . . . . . . . . . .	Number	 0007h	 
PLAY_MAX_X . . . . . . . . . . .	Number	 001Ah	 
PLAY_MAX_Y . . . . . . . . . . .	Number	 000Dh	 
PLAY_MIN_X . . . . . . . . . . .	Number	 0001h	 
PLAY_MIN_Y . . . . . . . . . . .	Number	 0001h	 
SAFE_X_MAX . . . . . . . . . . .	Number	 0006h	 
SAFE_Y_MIN . . . . . . . . . . .	Number	 000Ah	 
SCAN_A . . . . . . . . . . . . .	Number	 001Eh	 
SCAN_C . . . . . . . . . . . . .	Number	 002Eh	 
SCAN_DOWN_EXT  . . . . . . . . .	Number	 00D0h	 
SCAN_D . . . . . . . . . . . . .	Number	 0020h	 
SCAN_ENTER . . . . . . . . . . .	Number	 001Ch	 
SCAN_EXT_FLAG  . . . . . . . . .	Number	 0080h	 
SCAN_LEFT_EXT  . . . . . . . . .	Number	 00CBh	 
SCAN_RIGHT_EXT . . . . . . . . .	Number	 00CDh	 
SCAN_S . . . . . . . . . . . . .	Number	 001Fh	 
SCAN_UP_EXT  . . . . . . . . . .	Number	 00C8h	 
SCAN_W . . . . . . . . . . . . .	Number	 0011h	 
SCREEN_H . . . . . . . . . . . .	Number	 00C8h	 
SCREEN_PIXELS  . . . . . . . . .	Number	 FA00h	 
SCREEN_WORDS . . . . . . . . . .	Number	 7D00h	 
SCREEN_W . . . . . . . . . . . .	Number	 0140h	 
SHARD_COUNT  . . . . . . . . . .	Number	 0004h	 
SPLASH_DURATION  . . . . . . . .	Number	 0036h	 
START_PULSES . . . . . . . . . .	Number	 0003h	 
START_SHIELDS  . . . . . . . . .	Number	 0005h	 
START_X  . . . . . . . . . . . .	Number	 0002h	 
START_Y  . . . . . . . . . . . .	Number	 000Dh	 
STAR_COUNT . . . . . . . . . . .	Number	 0010h	 
STATE_LOSE . . . . . . . . . . .	Number	 0003h	 
STATE_PLAYING  . . . . . . . . .	Number	 0001h	 
STATE_SPLASH . . . . . . . . . .	Number	 0004h	 
STATE_TITLE  . . . . . . . . . .	Number	 0000h	 
STATE_WIN  . . . . . . . . . . .	Number	 0002h	 
TILE_EXIT_LOCKED . . . . . . . .	Number	 0003h	 
TILE_EXIT_OPEN . . . . . . . . .	Number	 0004h	 
TILE_FLOOR . . . . . . . . . . .	Number	 0000h	 
TILE_SHARD . . . . . . . . . . .	Number	 0002h	 
TILE_SHIFT . . . . . . . . . . .	Number	 0003h	 
TILE_SIZE  . . . . . . . . . . .	Number	 0008h	 
TILE_WALL  . . . . . . . . . . .	Number	 0001h	 
TOTAL_SECTORS  . . . . . . . . .	Number	 0003h	 
VGA_SEG  . . . . . . . . . . . .	Number	 A000h	 
action_taken . . . . . . . . . .	Byte	 139D	  _TEXT	
advance_sector . . . . . . . . .	L Near	 060D	  _TEXT	
anim_phase . . . . . . . . . . .	Byte	 13A6	  _TEXT	
any_key_pending  . . . . . . . .	Byte	 13A9	  _TEXT	
attempt_move_to  . . . . . . . .	L Near	 0573	  _TEXT	
award_done . . . . . . . . . . .	L Near	 0894	  _TEXT	
award_kill . . . . . . . . . . .	L Near	 0887	  _TEXT	
blocked_move . . . . . . . . . .	L Near	 0555	  _TEXT	
check_hit_effect . . . . . . . .	L Near	 131F	  _TEXT	
check_pulse_lower  . . . . . . .	L Near	 0455	  _TEXT	
clear_backbuffer . . . . . . . .	L Near	 08EB	  _TEXT	
clear_enemy_loop . . . . . . . .	L Near	 07A0	  _TEXT	
clear_enemy_table  . . . . . . .	L Near	 0798	  _TEXT	
compute_offset . . . . . . . . .	L Near	 09F1	  _TEXT	
consume_down . . . . . . . . . .	L Near	 04E9	  _TEXT	
consume_left . . . . . . . . . .	L Near	 04AD	  _TEXT	
consume_pulse  . . . . . . . . .	L Near	 049E	  _TEXT	
consume_right  . . . . . . . . .	L Near	 04C1	  _TEXT	
consume_up . . . . . . . . . . .	L Near	 04D5	  _TEXT	
controls_text  . . . . . . . . .	Byte	 17EC	  _TEXT	
copy_layout_loop . . . . . . . .	L Near	 07BD	  _TEXT	
copy_sector_layout . . . . . . .	L Near	 07A6	  _TEXT	
copy_store . . . . . . . . . . .	L Near	 07C8	  _TEXT	
copy_wall  . . . . . . . . . . .	L Near	 07C6	  _TEXT	
data_count . . . . . . . . . . .	Byte	 139A	  _TEXT	
data_text  . . . . . . . . . . .	Byte	 17CF	  _TEXT	
debug_check_text . . . . . . . .	Byte	 19D8	  _TEXT	
debug_enter_text . . . . . . . .	Byte	 19D3	  _TEXT	
debug_keys_text  . . . . . . . .	Byte	 19CE	  _TEXT	
debug_poll_text  . . . . . . . .	Byte	 19DD	  _TEXT	
do_pulse . . . . . . . . . . . .	L Near	 055C	  _TEXT	
draw_bitmap8_done  . . . . . . .	L Near	 0C1A	  _TEXT	
draw_bitmap8_row . . . . . . . .	L Near	 0BFE	  _TEXT	
draw_bitmap8 . . . . . . . . . .	L Near	 0BEB	  _TEXT	
draw_char_1x_col . . . . . . . .	L Near	 0AF2	  _TEXT	
draw_char_1x_done  . . . . . . .	L Near	 0B01	  _TEXT	
draw_char_1x_row . . . . . . . .	L Near	 0ACB	  _TEXT	
draw_char_1x_skip  . . . . . . .	L Near	 0AF9	  _TEXT	
draw_char_1x . . . . . . . . . .	L Near	 0AB0	  _TEXT	
draw_char_2x_col . . . . . . . .	L Near	 0B32	  _TEXT	
draw_char_2x_done  . . . . . . .	L Near	 0B6F	  _TEXT	
draw_char_2x_next_row  . . . . .	L Near	 0B6C	  _TEXT	
draw_char_2x_row . . . . . . . .	L Near	 0B24	  _TEXT	
draw_char_2x_skip  . . . . . . .	L Near	 0B64	  _TEXT	
draw_char_2x . . . . . . . . . .	L Near	 0B09	  _TEXT	
draw_digit_small . . . . . . . .	L Near	 0A88	  _TEXT	
draw_floor_tile  . . . . . . . .	L Near	 120C	  _TEXT	
draw_game_panels . . . . . . . .	L Near	 0F95	  _TEXT	
draw_gate_meter  . . . . . . . .	L Near	 116B	  _TEXT	
draw_locked_tile . . . . . . . .	L Near	 1224	  _TEXT	
draw_lose_scene  . . . . . . . .	L Near	 0F29	  _TEXT	
draw_open_tile . . . . . . . . .	L Near	 122B	  _TEXT	
draw_pulse_effect  . . . . . . .	L Near	 1345	  _TEXT	
draw_pulse_meter . . . . . . . .	L Near	 112F	  _TEXT	
draw_rect_outline  . . . . . . .	L Near	 0964	  _TEXT	
draw_shard_tile  . . . . . . . .	L Near	 121A	  _TEXT	
draw_shield_meter  . . . . . . .	L Near	 10DF	  _TEXT	
draw_splash_scene  . . . . . . .	L Near	 0CC5	  _TEXT	
draw_sprite16_2x_col . . . . . .	L Near	 0C3C	  _TEXT	
draw_sprite16_2x_done  . . . . .	L Near	 0C77	  _TEXT	
draw_sprite16_2x_next_row  . . .	L Near	 0C74	  _TEXT	
draw_sprite16_2x_row . . . . . .	L Near	 0C35	  _TEXT	
draw_sprite16_2x_skip  . . . . .	L Near	 0C71	  _TEXT	
draw_sprite16_2x . . . . . . . .	L Near	 0C22	  _TEXT	
draw_sprite8 . . . . . . . . . .	L Near	 0BAB	  _TEXT	
draw_sprite_col  . . . . . . . .	L Near	 0BD5	  _TEXT	
draw_sprite_done . . . . . . . .	L Near	 0BE3	  _TEXT	
draw_sprite_row  . . . . . . . .	L Near	 0BBE	  _TEXT	
draw_sprite_skip . . . . . . . .	L Near	 0BDD	  _TEXT	
draw_star_loop . . . . . . . . .	L Near	 0907	  _TEXT	
draw_starfield . . . . . . . . .	L Near	 08FC	  _TEXT	
draw_text_big_done . . . . . . .	L Near	 0A87	  _TEXT	
draw_text_big_loop . . . . . . .	L Near	 0A62	  _TEXT	
draw_text_big_space  . . . . . .	L Near	 0A7F	  _TEXT	
draw_text_big  . . . . . . . . .	L Near	 0A53	  _TEXT	
draw_text_small_done . . . . . .	L Near	 0A52	  _TEXT	
draw_text_small_loop . . . . . .	L Near	 0A2D	  _TEXT	
draw_text_small_space  . . . . .	L Near	 0A4A	  _TEXT	
draw_text_small  . . . . . . . .	L Near	 0A1E	  _TEXT	
draw_tile  . . . . . . . . . . .	L Near	 11FA	  _TEXT	
draw_title_scene . . . . . . . .	L Near	 0DB2	  _TEXT	
draw_two_digit_small . . . . . .	L Near	 0A8E	  _TEXT	
draw_wall_tile . . . . . . . . .	L Near	 1213	  _TEXT	
draw_win_scene . . . . . . . . .	L Near	 0ED0	  _TEXT	
effects_done . . . . . . . . . .	L Near	 1344	  _TEXT	
enemies  . . . . . . . . . . . .	Byte	 15C7	  _TEXT	
enemy_bob_ready  . . . . . . . .	L Near	 12DC	  _TEXT	
enemy_done . . . . . . . . . . .	L Near	 06F6	  _TEXT	
enemy_try_down . . . . . . . . .	L Near	 06EB	  _TEXT	
enemy_try_left . . . . . . . . .	L Near	 06BB	  _TEXT	
enemy_try_right  . . . . . . . .	L Near	 06C8	  _TEXT	
enemy_try_up . . . . . . . . . .	L Near	 06DE	  _TEXT	
enemy_try_vertical . . . . . . .	L Near	 06D3	  _TEXT	
enemy_turn_done  . . . . . . . .	L Near	 06A9	  _TEXT	
enemy_turn_loop  . . . . . . . .	L Near	 0692	  _TEXT	
enemy_turn_next  . . . . . . . .	L Near	 06A4	  _TEXT	
enemy_turn . . . . . . . . . . .	L Near	 068C	  _TEXT	
enter_key_true . . . . . . . . .	L Near	 022E	  _TEXT	
exit_x . . . . . . . . . . . . .	Byte	 13A0	  _TEXT	
exit_y . . . . . . . . . . . . .	Byte	 13A1	  _TEXT	
fill_rect_done . . . . . . . . .	L Near	 09DC	  _TEXT	
fill_rect_row  . . . . . . . . .	L Near	 09C9	  _TEXT	
fill_rect  . . . . . . . . . . .	L Near	 09BD	  _TEXT	
find_enemy_at  . . . . . . . . .	L Near	 0895	  _TEXT	
find_enemy_loop  . . . . . . . .	L Near	 089D	  _TEXT	
find_enemy_next  . . . . . . . .	L Near	 08B8	  _TEXT	
font5x7  . . . . . . . . . . . .	Byte	 1FE9	  _TEXT	
frontend_state_done  . . . . . .	L Near	 0408	  _TEXT	
game_state . . . . . . . . . . .	Byte	 1396	  _TEXT	
gate_closed_base . . . . . . . .	L Near	 11B8	  _TEXT	
gate_closed  . . . . . . . . . .	L Near	 11A0	  _TEXT	
gate_meter_ready . . . . . . . .	L Near	 11BA	  _TEXT	
gate_open_base . . . . . . . . .	L Near	 119C	  _TEXT	
gate_text  . . . . . . . . . . .	Byte	 17E7	  _TEXT	
get_enemy_sprite_a . . . . . . .	L Near	 129E	  _TEXT	
get_enemy_sprite . . . . . . . .	L Near	 1292	  _TEXT	
get_floor_tile_a . . . . . . . .	L Near	 123E	  _TEXT	
get_floor_tile_frame . . . . . .	L Near	 1232	  _TEXT	
get_gate_sprite_a  . . . . . . .	L Near	 128E	  _TEXT	
get_gate_sprite  . . . . . . . .	L Near	 1282	  _TEXT	
get_glyph_ptr  . . . . . . . . .	L Near	 0B77	  _TEXT	
get_locked_tile_a  . . . . . . .	L Near	 125E	  _TEXT	
get_locked_tile_frame  . . . . .	L Near	 1252	  _TEXT	
get_open_tile_a  . . . . . . . .	L Near	 126E	  _TEXT	
get_open_tile_frame  . . . . . .	L Near	 1262	  _TEXT	
get_player_sprite_a  . . . . . .	L Near	 12AE	  _TEXT	
get_player_sprite  . . . . . . .	L Near	 12A2	  _TEXT	
get_shard_sprite_a . . . . . . .	L Near	 127E	  _TEXT	
get_shard_sprite . . . . . . . .	L Near	 1272	  _TEXT	
get_tile . . . . . . . . . . . .	L Near	 08C1	  _TEXT	
get_wall_tile_a  . . . . . . . .	L Near	 124E	  _TEXT	
get_wall_tile_frame  . . . . . .	L Near	 1242	  _TEXT	
glyph_base_x . . . . . . . . . .	Word	 15BD	  _TEXT	
glyph_base_y . . . . . . . . . .	Word	 15BF	  _TEXT	
glyph_check_digit  . . . . . . .	L Near	 0B83	  _TEXT	
glyph_check_period . . . . . . .	L Near	 0B91	  _TEXT	
glyph_index_ready  . . . . . . .	L Near	 0B9B	  _TEXT	
glyph_row_bits . . . . . . . . .	Byte	 15C6	  _TEXT	
glyph_space  . . . . . . . . . .	L Near	 0B99	  _TEXT	
handle_play_input  . . . . . . .	L Near	 03D2	  _TEXT	
handle_splash_input  . . . . . .	L Near	 03A3	  _TEXT	
hit_effect_base  . . . . . . . .	L Near	 133F	  _TEXT	
hit_effect_ready . . . . . . . .	L Near	 1341	  _TEXT	
hud_title  . . . . . . . . . . .	Byte	 17BD	  _TEXT	
init_palette_loop  . . . . . . .	L Near	 0A15	  _TEXT	
init_palette . . . . . . . . . .	L Near	 0A04	  _TEXT	
input_check_count  . . . . . . .	Byte	 13AC	  _TEXT	
input_done . . . . . . . . . . .	L Near	 0572	  _TEXT	
input_event_count  . . . . . . .	Byte	 13AA	  _TEXT	
input_last_code  . . . . . . . .	Byte	 13AB	  _TEXT	
input_last_polled  . . . . . . .	Byte	 13AE	  _TEXT	
input_poll_count . . . . . . . .	Byte	 13AD	  _TEXT	
install_keyboard_handler . . . .	L Near	 0003	  _TEXT	
is_enter_key . . . . . . . . . .	L Near	 0223	  _TEXT	
keep_pulse_count . . . . . . . .	L Near	 0764	  _TEXT	
key_check_a  . . . . . . . . . .	L Near	 01D3	  _TEXT	
key_check_c  . . . . . . . . . .	L Near	 01E8	  _TEXT	
key_check_down . . . . . . . . .	L Near	 0217	  _TEXT	
key_check_d  . . . . . . . . . .	L Near	 01E1	  _TEXT	
key_check_enter  . . . . . . . .	L Near	 01EF	  _TEXT	
key_check_left . . . . . . . . .	L Near	 0205	  _TEXT	
key_check_right  . . . . . . . .	L Near	 020E	  _TEXT	
key_check_s  . . . . . . . . . .	L Near	 01DA	  _TEXT	
key_check_up . . . . . . . . . .	L Near	 01FC	  _TEXT	
key_down . . . . . . . . . . . .	Byte	 13B9	  _TEXT	
key_enter_match  . . . . . . . .	L Near	 01F7	  _TEXT	
key_extended . . . . . . . . . .	Byte	 13A8	  _TEXT	
key_pressed  . . . . . . . . . .	Byte	 14B9	  _TEXT	
key_unknown  . . . . . . . . . .	L Near	 0220	  _TEXT	
keyboard_count_event . . . . . .	L Near	 02F6	  _TEXT	
keyboard_done  . . . . . . . . .	L Near	 031B	  _TEXT	
keyboard_ignore  . . . . . . . .	L Near	 0315	  _TEXT	
keyboard_irq_handler . . . . . .	L Near	 0230	  _TEXT	
keyboard_mark_extended . . . . .	L Near	 030D	  _TEXT	
keyboard_press_a . . . . . . . .	L Near	 02B8	  _TEXT	
keyboard_press_c . . . . . . . .	L Near	 02D0	  _TEXT	
keyboard_press_down  . . . . . .	L Near	 02F0	  _TEXT	
keyboard_press_d . . . . . . . .	L Near	 02C8	  _TEXT	
keyboard_press_enter . . . . . .	L Near	 02A8	  _TEXT	
keyboard_press_left  . . . . . .	L Near	 02E0	  _TEXT	
keyboard_press_right . . . . . .	L Near	 02E8	  _TEXT	
keyboard_press_s . . . . . . . .	L Near	 02C0	  _TEXT	
keyboard_press_up  . . . . . . .	L Near	 02D8	  _TEXT	
keyboard_press_w . . . . . . . .	L Near	 02B0	  _TEXT	
keyboard_release . . . . . . . .	L Near	 0305	  _TEXT	
kill_count . . . . . . . . . . .	Byte	 139B	  _TEXT	
kills_text . . . . . . . . . . .	Byte	 17D4	  _TEXT	
last_tick  . . . . . . . . . . .	Word	 13A4	  _TEXT	
load_sector  . . . . . . . . . .	L Near	 074F	  _TEXT	
lose_line_1  . . . . . . . . . .	Byte	 1A0B	  _TEXT	
lose_line_2  . . . . . . . . . .	Byte	 1A13	  _TEXT	
lose_prompt_dim  . . . . . . . .	L Near	 0F7C	  _TEXT	
lose_prompt_ready  . . . . . . .	L Near	 0F7E	  _TEXT	
main_loop  . . . . . . . . . . .	L Near	 0377	  _TEXT	
map_index  . . . . . . . . . . .	L Near	 08D7	  _TEXT	
map_row_offsets  . . . . . . . .	Word	 1789	  _TEXT	
map_tiles  . . . . . . . . . . .	Byte	 15E5	  _TEXT	
maybe_enemy_turn . . . . . . . .	L Near	 055F	  _TEXT	
message_id . . . . . . . . . . .	Byte	 139C	  _TEXT	
message_table  . . . . . . . . .	Word	 17A7	  _TEXT	
move_blocked . . . . . . . . . .	L Near	 05A1	  _TEXT	
move_collect_shard . . . . . . .	L Near	 05C6	  _TEXT	
move_down  . . . . . . . . . . .	L Near	 053F	  _TEXT	
move_enemy . . . . . . . . . . .	L Near	 06AA	  _TEXT	
move_floor . . . . . . . . . . .	L Near	 0590	  _TEXT	
move_left  . . . . . . . . . . .	L Near	 04FD	  _TEXT	
move_right . . . . . . . . . . .	L Near	 0513	  _TEXT	
move_up  . . . . . . . . . . . .	L Near	 0529	  _TEXT	
move_use_exit  . . . . . . . . .	L Near	 05F9	  _TEXT	
open_exit  . . . . . . . . . . .	L Near	 07D8	  _TEXT	
palette_data . . . . . . . . . .	Byte	 1FB3	  _TEXT	
place_enemies  . . . . . . . . .	L Near	 07F6	  _TEXT	
place_enemy_find_slot  . . . . .	L Near	 0805	  _TEXT	
place_enemy_here . . . . . . . .	L Near	 080F	  _TEXT	
place_shard_loop . . . . . . . .	L Near	 07EB	  _TEXT	
place_shards . . . . . . . . . .	L Near	 07E8	  _TEXT	
player_bob_ready . . . . . . . .	L Near	 130D	  _TEXT	
player_x . . . . . . . . . . . .	Byte	 139E	  _TEXT	
player_y . . . . . . . . . . . .	Byte	 139F	  _TEXT	
poll_check_ready . . . . . . . .	L Near	 00A2	  _TEXT	
poll_count_ready . . . . . . . .	L Near	 01C5	  _TEXT	
poll_key_a . . . . . . . . . . .	L Near	 012C	  _TEXT	
poll_key_c . . . . . . . . . . .	L Near	 015C	  _TEXT	
poll_key_down  . . . . . . . . .	L Near	 019C	  _TEXT	
poll_key_d . . . . . . . . . . .	L Near	 014C	  _TEXT	
poll_key_enter . . . . . . . . .	L Near	 010A	  _TEXT	
poll_key_event . . . . . . . . .	L Near	 0095	  _TEXT	
poll_key_left  . . . . . . . . .	L Near	 017C	  _TEXT	
poll_key_ready . . . . . . . . .	L Near	 01B4	  _TEXT	
poll_key_right . . . . . . . . .	L Near	 018C	  _TEXT	
poll_key_s . . . . . . . . . . .	L Near	 013C	  _TEXT	
poll_key_unknown . . . . . . . .	L Near	 01AC	  _TEXT	
poll_key_up  . . . . . . . . . .	L Near	 016C	  _TEXT	
poll_key_w . . . . . . . . . . .	L Near	 011B	  _TEXT	
present_frame  . . . . . . . . .	L Near	 0943	  _TEXT	
pressed_a  . . . . . . . . . . .	Byte	 13B1	  _TEXT	
pressed_c  . . . . . . . . . . .	Byte	 13B4	  _TEXT	
pressed_down . . . . . . . . . .	Byte	 13B8	  _TEXT	
pressed_d  . . . . . . . . . . .	Byte	 13B3	  _TEXT	
pressed_enter  . . . . . . . . .	Byte	 13AF	  _TEXT	
pressed_left . . . . . . . . . .	Byte	 13B6	  _TEXT	
pressed_right  . . . . . . . . .	Byte	 13B7	  _TEXT	
pressed_s  . . . . . . . . . . .	Byte	 13B2	  _TEXT	
pressed_up . . . . . . . . . . .	Byte	 13B5	  _TEXT	
pressed_w  . . . . . . . . . . .	Byte	 13B0	  _TEXT	
process_play_input . . . . . . .	L Near	 0437	  _TEXT	
pulse_count  . . . . . . . . . .	Byte	 1399	  _TEXT	
pulse_effect_base  . . . . . . .	L Near	 1377	  _TEXT	
pulse_effect_done  . . . . . . .	L Near	 1395	  _TEXT	
pulse_effect_ready . . . . . . .	L Near	 1379	  _TEXT	
pulse_hit  . . . . . . . . . . .	L Near	 0680	  _TEXT	
pulse_live . . . . . . . . . . .	L Near	 0626	  _TEXT	
pulse_loop . . . . . . . . . . .	L Near	 063D	  _TEXT	
pulse_meter_loop . . . . . . . .	L Near	 113A	  _TEXT	
pulse_meter_next . . . . . . . .	L Near	 1164	  _TEXT	
pulse_next . . . . . . . . . . .	L Near	 0686	  _TEXT	
pulse_text . . . . . . . . . . .	Byte	 17E1	  _TEXT	
pulse_x_left . . . . . . . . . .	L Near	 0658	  _TEXT	
pulse_x_ok . . . . . . . . . . .	L Near	 0661	  _TEXT	
pulse_y_up . . . . . . . . . . .	L Near	 0677	  _TEXT	
put_pixel  . . . . . . . . . . .	L Near	 09E4	  _TEXT	
rand_enemy_retry . . . . . . . .	L Near	 0849	  _TEXT	
rand_enemy_space_ok  . . . . . .	L Near	 0856	  _TEXT	
rand_floor_not_start . . . . . .	L Near	 0837	  _TEXT	
rand_floor_retry . . . . . . . .	L Near	 0823	  _TEXT	
rand_floor_tile  . . . . . . . .	L Near	 0841	  _TEXT	
random_enemy_position  . . . . .	L Near	 0849	  _TEXT	
random_floor_position  . . . . .	L Near	 0823	  _TEXT	
random_store . . . . . . . . . .	L Near	 0882	  _TEXT	
random_word  . . . . . . . . . .	L Near	 0877	  _TEXT	
random_x . . . . . . . . . . . .	L Near	 085F	  _TEXT	
random_y . . . . . . . . . . . .	L Near	 086B	  _TEXT	
rect_h . . . . . . . . . . . . .	Word	 15C3	  _TEXT	
rect_w . . . . . . . . . . . . .	Word	 15C1	  _TEXT	
render_enemies . . . . . . . . .	L Near	 12B2	  _TEXT	
render_enemy_loop  . . . . . . .	L Near	 12B8	  _TEXT	
render_enemy_next  . . . . . . .	L Near	 12E4	  _TEXT	
render_game_effects  . . . . . .	L Near	 1314	  _TEXT	
render_game_screen . . . . . . .	L Near	 0F82	  _TEXT	
render_game_status . . . . . . .	L Near	 101E	  _TEXT	
render_lose_screen . . . . . . .	L Near	 0CBE	  _TEXT	
render_map_col . . . . . . . . .	L Near	 11CC	  _TEXT	
render_map_row . . . . . . . . .	L Near	 11C6	  _TEXT	
render_map . . . . . . . . . . .	L Near	 11BE	  _TEXT	
render_player  . . . . . . . . .	L Near	 12EA	  _TEXT	
render_present . . . . . . . . .	L Near	 0CC1	  _TEXT	
render_screen  . . . . . . . . .	L Near	 0C7F	  _TEXT	
render_splash_screen . . . . . .	L Near	 0CAF	  _TEXT	
render_title_screen  . . . . . .	L Near	 0CB4	  _TEXT	
render_win_screen  . . . . . . .	L Near	 0CB9	  _TEXT	
replay_prompt  . . . . . . . . .	Byte	 1A37	  _TEXT	
reset_keyboard_state . . . . . .	L Near	 001A	  _TEXT	
rng_state  . . . . . . . . . . .	Word	 13A2	  _TEXT	
sector1_map  . . . . . . . . . .	Byte	 20F3	  _TEXT	
sector2_map  . . . . . . . . . .	Byte	 2297	  _TEXT	
sector3_map  . . . . . . . . . .	Byte	 243B	  _TEXT	
sector_num . . . . . . . . . . .	Byte	 1397	  _TEXT	
sector_text  . . . . . . . . . .	Byte	 17C8	  _TEXT	
seed_ready . . . . . . . . . . .	L Near	 0356	  _TEXT	
set_exit_locked  . . . . . . . .	L Near	 07CE	  _TEXT	
set_tile . . . . . . . . . . . .	L Near	 08CC	  _TEXT	
shard_message  . . . . . . . . .	L Near	 05F2	  _TEXT	
shield_count . . . . . . . . . .	Byte	 1398	  _TEXT	
shield_meter_color_ready . . . .	L Near	 1123	  _TEXT	
shield_meter_loop  . . . . . . .	L Near	 10EA	  _TEXT	
shield_meter_next  . . . . . . .	L Near	 1128	  _TEXT	
shield_meter_safe  . . . . . . .	L Near	 1121	  _TEXT	
shield_text  . . . . . . . . . .	Byte	 17DA	  _TEXT	
skip_splash  . . . . . . . . . .	L Near	 03CA	  _TEXT	
splash_bar_base  . . . . . . . .	L Near	 0D92	  _TEXT	
splash_bar_done  . . . . . . . .	L Near	 0D97	  _TEXT	
splash_bar_ready . . . . . . . .	L Near	 0D94	  _TEXT	
splash_brand . . . . . . . . . .	Byte	 18CD	  _TEXT	
splash_check_skip  . . . . . . .	L Near	 03BC	  _TEXT	
splash_frame_base  . . . . . . .	L Near	 0CEE	  _TEXT	
splash_frame_ready . . . . . . .	L Near	 0CF0	  _TEXT	
splash_skip_dim  . . . . . . . .	L Near	 0DAC	  _TEXT	
splash_skip_ready  . . . . . . .	L Near	 0DAE	  _TEXT	
splash_skip  . . . . . . . . . .	Byte	 1905	  _TEXT	
splash_subtitle  . . . . . . . .	Byte	 18D6	  _TEXT	
splash_tagline . . . . . . . . .	Byte	 18DF	  _TEXT	
splash_ticks . . . . . . . . . .	Byte	 13A7	  _TEXT	
sprite_bitriver_mark . . . . . .	Byte	 1C53	  _TEXT	
sprite_enemy_a . . . . . . . . .	Byte	 1AD3	  _TEXT	
sprite_enemy_b . . . . . . . . .	Byte	 1B13	  _TEXT	
sprite_gate_a  . . . . . . . . .	Byte	 1BD3	  _TEXT	
sprite_gate_b  . . . . . . . . .	Byte	 1C13	  _TEXT	
sprite_player_a  . . . . . . . .	Byte	 1A53	  _TEXT	
sprite_player_b  . . . . . . . .	Byte	 1A93	  _TEXT	
sprite_shard_a . . . . . . . . .	Byte	 1B53	  _TEXT	
sprite_shard_b . . . . . . . . .	Byte	 1B93	  _TEXT	
star_color_ready . . . . . . . .	L Near	 0925	  _TEXT	
star_shift_cyan  . . . . . . . .	L Near	 0923	  _TEXT	
starfield  . . . . . . . . . . .	Word	 1F53	  _TEXT	
start_new_run  . . . . . . . . .	L Near	 0409	  _TEXT	
start  . . . . . . . . . . . . .	L Near	 0331	  _TEXT	Public
step_fail  . . . . . . . . . . .	L Near	 074D	  _TEXT	
step_not_player  . . . . . . . .	L Near	 0727	  _TEXT	
step_success . . . . . . . . . .	L Near	 0725	  _TEXT	
stepped_into_enemy . . . . . . .	L Near	 05A8	  _TEXT	
template_table . . . . . . . . .	Word	 17B7	  _TEXT	
text_color . . . . . . . . . . .	Byte	 15C5	  _TEXT	
text_cursor_x  . . . . . . . . .	Word	 15B9	  _TEXT	
text_cursor_y  . . . . . . . . .	Word	 15BB	  _TEXT	
text_msg_block . . . . . . . . .	Byte	 1838	  _TEXT	
text_msg_gate  . . . . . . . . .	Byte	 1864	  _TEXT	
text_msg_hit . . . . . . . . . .	Byte	 1881	  _TEXT	
text_msg_kill  . . . . . . . . .	Byte	 189A	  _TEXT	
text_msg_nopulse . . . . . . . .	Byte	 18B8	  _TEXT	
text_msg_pulse . . . . . . . . .	Byte	 18A9	  _TEXT	
text_msg_sector  . . . . . . . .	Byte	 1814	  _TEXT	
text_msg_shard . . . . . . . . .	Byte	 1855	  _TEXT	
tile_floor_a . . . . . . . . . .	Byte	 1D53	  _TEXT	
tile_floor_b . . . . . . . . . .	Byte	 1D93	  _TEXT	
tile_locked_a  . . . . . . . . .	Byte	 1E53	  _TEXT	
tile_locked_b  . . . . . . . . .	Byte	 1E93	  _TEXT	
tile_open_a  . . . . . . . . . .	Byte	 1ED3	  _TEXT	
tile_open_b  . . . . . . . . . .	Byte	 1F13	  _TEXT	
tile_wall_a  . . . . . . . . . .	Byte	 1DD3	  _TEXT	
tile_wall_b  . . . . . . . . . .	Byte	 1E13	  _TEXT	
title_cursor_off . . . . . . . .	L Near	 0ECF	  _TEXT	
title_frame_dim  . . . . . . . .	L Near	 0DDB	  _TEXT	
title_frame_ready  . . . . . . .	L Near	 0DDD	  _TEXT	
title_line_1 . . . . . . . . . .	Byte	 192E	  _TEXT	
title_line_2 . . . . . . . . . .	Byte	 1950	  _TEXT	
title_line_3 . . . . . . . . . .	Byte	 1974	  _TEXT	
title_line_4 . . . . . . . . . .	Byte	 199A	  _TEXT	
title_line_ready . . . . . . . .	L Near	 0E2F	  _TEXT	
title_logo . . . . . . . . . . .	Byte	 1923	  _TEXT	
title_prompt_amber . . . . . . .	L Near	 0E2D	  _TEXT	
title_prompt . . . . . . . . . .	Byte	 19B4	  _TEXT	
translate_key_event  . . . . . .	L Near	 01CA	  _TEXT	
try_enemy_step . . . . . . . . .	L Near	 06F7	  _TEXT	
update_frontend_state  . . . . .	L Near	 03ED	  _TEXT	
use_pulse  . . . . . . . . . . .	L Near	 0617	  _TEXT	
wait_for_vblank  . . . . . . . .	L Near	 0933	  _TEXT	
wait_frame_tick_loop . . . . . .	L Near	 03D7	  _TEXT	
wait_frame_tick  . . . . . . . .	L Near	 03D7	  _TEXT	
wait_vblank_end  . . . . . . . .	L Near	 0937	  _TEXT	
wait_vblank_start  . . . . . . .	L Near	 093C	  _TEXT	
win_line_1 . . . . . . . . . . .	Byte	 19E2	  _TEXT	
win_line_2 . . . . . . . . . . .	Byte	 19E8	  _TEXT	
win_prompt_dim . . . . . . . . .	L Near	 0F23	  _TEXT	
win_prompt_ready . . . . . . . .	L Near	 0F25	  _TEXT	

	   1 Warnings
	   0 Errors
